ARM GAS  C:\Users\Sam\AppData\Local\Temp\ccLx1kzE.s 			page 1


   1              		.cpu cortex-m0
   2              		.fpu softvfp
   3              		.eabi_attribute 20, 1
   4              		.eabi_attribute 21, 1
   5              		.eabi_attribute 23, 3
   6              		.eabi_attribute 24, 1
   7              		.eabi_attribute 25, 1
   8              		.eabi_attribute 26, 1
   9              		.eabi_attribute 30, 6
  10              		.eabi_attribute 34, 0
  11              		.eabi_attribute 18, 4
  12              		.code	16
  13              		.file	"timer_ISR.c"
  14              		.text
  15              	.Ltext0:
  16              		.cfi_sections	.debug_frame
  17              		.section	.text.timer_ISR_Start,"ax",%progbits
  18              		.align	2
  19              		.global	timer_ISR_Start
  20              		.code	16
  21              		.thumb_func
  22              		.type	timer_ISR_Start, %function
  23              	timer_ISR_Start:
  24              	.LFB0:
  25              		.file 1 ".\\Generated_Source\\PSoC4\\timer_ISR.c"
   1:.\Generated_Source\PSoC4/timer_ISR.c **** /*******************************************************************************
   2:.\Generated_Source\PSoC4/timer_ISR.c **** * File Name: timer_ISR.c  
   3:.\Generated_Source\PSoC4/timer_ISR.c **** * Version 1.70
   4:.\Generated_Source\PSoC4/timer_ISR.c **** *
   5:.\Generated_Source\PSoC4/timer_ISR.c **** *  Description:
   6:.\Generated_Source\PSoC4/timer_ISR.c **** *   API for controlling the state of an interrupt.
   7:.\Generated_Source\PSoC4/timer_ISR.c **** *
   8:.\Generated_Source\PSoC4/timer_ISR.c **** *
   9:.\Generated_Source\PSoC4/timer_ISR.c **** *  Note:
  10:.\Generated_Source\PSoC4/timer_ISR.c **** *
  11:.\Generated_Source\PSoC4/timer_ISR.c **** ********************************************************************************
  12:.\Generated_Source\PSoC4/timer_ISR.c **** * Copyright 2008-2012, Cypress Semiconductor Corporation.  All rights reserved.
  13:.\Generated_Source\PSoC4/timer_ISR.c **** * You may use this file only in accordance with the license, terms, conditions, 
  14:.\Generated_Source\PSoC4/timer_ISR.c **** * disclaimers, and limitations in the end user license agreement accompanying 
  15:.\Generated_Source\PSoC4/timer_ISR.c **** * the software package with which this file was provided.
  16:.\Generated_Source\PSoC4/timer_ISR.c **** *******************************************************************************/
  17:.\Generated_Source\PSoC4/timer_ISR.c **** 
  18:.\Generated_Source\PSoC4/timer_ISR.c **** 
  19:.\Generated_Source\PSoC4/timer_ISR.c **** #include <cydevice_trm.h>
  20:.\Generated_Source\PSoC4/timer_ISR.c **** #include <CyLib.h>
  21:.\Generated_Source\PSoC4/timer_ISR.c **** #include <timer_ISR.h>
  22:.\Generated_Source\PSoC4/timer_ISR.c **** 
  23:.\Generated_Source\PSoC4/timer_ISR.c **** #if !defined(timer_ISR__REMOVED) /* Check for removal by optimization */
  24:.\Generated_Source\PSoC4/timer_ISR.c **** 
  25:.\Generated_Source\PSoC4/timer_ISR.c **** /*******************************************************************************
  26:.\Generated_Source\PSoC4/timer_ISR.c **** *  Place your includes, defines and code here 
  27:.\Generated_Source\PSoC4/timer_ISR.c **** ********************************************************************************/
  28:.\Generated_Source\PSoC4/timer_ISR.c **** /* `#START timer_ISR_intc` */
  29:.\Generated_Source\PSoC4/timer_ISR.c ****   
  30:.\Generated_Source\PSoC4/timer_ISR.c ****     extern uint8 volatile interruptFlag;
  31:.\Generated_Source\PSoC4/timer_ISR.c ****     #include <Timer.h>
  32:.\Generated_Source\PSoC4/timer_ISR.c **** 
ARM GAS  C:\Users\Sam\AppData\Local\Temp\ccLx1kzE.s 			page 2


  33:.\Generated_Source\PSoC4/timer_ISR.c **** /* `#END` */
  34:.\Generated_Source\PSoC4/timer_ISR.c **** 
  35:.\Generated_Source\PSoC4/timer_ISR.c **** extern cyisraddress CyRamVectors[CYINT_IRQ_BASE + CY_NUM_INTERRUPTS];
  36:.\Generated_Source\PSoC4/timer_ISR.c **** 
  37:.\Generated_Source\PSoC4/timer_ISR.c **** /* Declared in startup, used to set unused interrupts to. */
  38:.\Generated_Source\PSoC4/timer_ISR.c **** CY_ISR_PROTO(IntDefaultHandler);
  39:.\Generated_Source\PSoC4/timer_ISR.c **** 
  40:.\Generated_Source\PSoC4/timer_ISR.c **** 
  41:.\Generated_Source\PSoC4/timer_ISR.c **** /*******************************************************************************
  42:.\Generated_Source\PSoC4/timer_ISR.c **** * Function Name: timer_ISR_Start
  43:.\Generated_Source\PSoC4/timer_ISR.c **** ********************************************************************************
  44:.\Generated_Source\PSoC4/timer_ISR.c **** *
  45:.\Generated_Source\PSoC4/timer_ISR.c **** * Summary:
  46:.\Generated_Source\PSoC4/timer_ISR.c **** *  Set up the interrupt and enable it.
  47:.\Generated_Source\PSoC4/timer_ISR.c **** *
  48:.\Generated_Source\PSoC4/timer_ISR.c **** * Parameters:  
  49:.\Generated_Source\PSoC4/timer_ISR.c **** *   None
  50:.\Generated_Source\PSoC4/timer_ISR.c **** *
  51:.\Generated_Source\PSoC4/timer_ISR.c **** * Return:
  52:.\Generated_Source\PSoC4/timer_ISR.c **** *   None
  53:.\Generated_Source\PSoC4/timer_ISR.c **** *
  54:.\Generated_Source\PSoC4/timer_ISR.c **** *******************************************************************************/
  55:.\Generated_Source\PSoC4/timer_ISR.c **** void timer_ISR_Start(void)
  56:.\Generated_Source\PSoC4/timer_ISR.c **** {
  26              		.loc 1 56 0
  27              		.cfi_startproc
  28 0000 80B5     		push	{r7, lr}
  29              	.LCFI0:
  30              		.cfi_def_cfa_offset 8
  31              		.cfi_offset 7, -8
  32              		.cfi_offset 14, -4
  33 0002 00AF     		add	r7, sp, #0
  34              	.LCFI1:
  35              		.cfi_def_cfa_register 7
  57:.\Generated_Source\PSoC4/timer_ISR.c ****     /* For all we know the interrupt is active. */
  58:.\Generated_Source\PSoC4/timer_ISR.c ****     timer_ISR_Disable();
  36              		.loc 1 58 0
  37 0004 FFF7FEFF 		bl	timer_ISR_Disable
  59:.\Generated_Source\PSoC4/timer_ISR.c **** 
  60:.\Generated_Source\PSoC4/timer_ISR.c ****     /* Set the ISR to point to the timer_ISR Interrupt. */
  61:.\Generated_Source\PSoC4/timer_ISR.c ****     timer_ISR_SetVector(&timer_ISR_Interrupt);
  38              		.loc 1 61 0
  39 0008 054B     		ldr	r3, .L2
  40 000a 181C     		mov	r0, r3
  41 000c FFF7FEFF 		bl	timer_ISR_SetVector
  62:.\Generated_Source\PSoC4/timer_ISR.c **** 
  63:.\Generated_Source\PSoC4/timer_ISR.c ****     /* Set the priority. */
  64:.\Generated_Source\PSoC4/timer_ISR.c ****     timer_ISR_SetPriority((uint8)timer_ISR_INTC_PRIOR_NUMBER);
  42              		.loc 1 64 0
  43 0010 0320     		mov	r0, #3
  44 0012 FFF7FEFF 		bl	timer_ISR_SetPriority
  65:.\Generated_Source\PSoC4/timer_ISR.c **** 
  66:.\Generated_Source\PSoC4/timer_ISR.c ****     /* Enable it. */
  67:.\Generated_Source\PSoC4/timer_ISR.c ****     timer_ISR_Enable();
  45              		.loc 1 67 0
  46 0016 FFF7FEFF 		bl	timer_ISR_Enable
  68:.\Generated_Source\PSoC4/timer_ISR.c **** }
ARM GAS  C:\Users\Sam\AppData\Local\Temp\ccLx1kzE.s 			page 3


  47              		.loc 1 68 0
  48 001a BD46     		mov	sp, r7
  49              		@ sp needed for prologue
  50 001c 80BD     		pop	{r7, pc}
  51              	.L3:
  52 001e C046     		.align	2
  53              	.L2:
  54 0020 00000000 		.word	timer_ISR_Interrupt
  55              		.cfi_endproc
  56              	.LFE0:
  57              		.size	timer_ISR_Start, .-timer_ISR_Start
  58              		.section	.text.timer_ISR_StartEx,"ax",%progbits
  59              		.align	2
  60              		.global	timer_ISR_StartEx
  61              		.code	16
  62              		.thumb_func
  63              		.type	timer_ISR_StartEx, %function
  64              	timer_ISR_StartEx:
  65              	.LFB1:
  69:.\Generated_Source\PSoC4/timer_ISR.c **** 
  70:.\Generated_Source\PSoC4/timer_ISR.c **** 
  71:.\Generated_Source\PSoC4/timer_ISR.c **** /*******************************************************************************
  72:.\Generated_Source\PSoC4/timer_ISR.c **** * Function Name: timer_ISR_StartEx
  73:.\Generated_Source\PSoC4/timer_ISR.c **** ********************************************************************************
  74:.\Generated_Source\PSoC4/timer_ISR.c **** *
  75:.\Generated_Source\PSoC4/timer_ISR.c **** * Summary:
  76:.\Generated_Source\PSoC4/timer_ISR.c **** *  Set up the interrupt and enable it.
  77:.\Generated_Source\PSoC4/timer_ISR.c **** *
  78:.\Generated_Source\PSoC4/timer_ISR.c **** * Parameters:  
  79:.\Generated_Source\PSoC4/timer_ISR.c **** *   address: Address of the ISR to set in the interrupt vector table.
  80:.\Generated_Source\PSoC4/timer_ISR.c **** *
  81:.\Generated_Source\PSoC4/timer_ISR.c **** * Return:
  82:.\Generated_Source\PSoC4/timer_ISR.c **** *   None
  83:.\Generated_Source\PSoC4/timer_ISR.c **** *
  84:.\Generated_Source\PSoC4/timer_ISR.c **** *******************************************************************************/
  85:.\Generated_Source\PSoC4/timer_ISR.c **** void timer_ISR_StartEx(cyisraddress address)
  86:.\Generated_Source\PSoC4/timer_ISR.c **** {
  66              		.loc 1 86 0
  67              		.cfi_startproc
  68 0000 80B5     		push	{r7, lr}
  69              	.LCFI2:
  70              		.cfi_def_cfa_offset 8
  71              		.cfi_offset 7, -8
  72              		.cfi_offset 14, -4
  73 0002 82B0     		sub	sp, sp, #8
  74              	.LCFI3:
  75              		.cfi_def_cfa_offset 16
  76 0004 00AF     		add	r7, sp, #0
  77              	.LCFI4:
  78              		.cfi_def_cfa_register 7
  79 0006 7860     		str	r0, [r7, #4]
  87:.\Generated_Source\PSoC4/timer_ISR.c ****     /* For all we know the interrupt is active. */
  88:.\Generated_Source\PSoC4/timer_ISR.c ****     timer_ISR_Disable();
  80              		.loc 1 88 0
  81 0008 FFF7FEFF 		bl	timer_ISR_Disable
  89:.\Generated_Source\PSoC4/timer_ISR.c **** 
  90:.\Generated_Source\PSoC4/timer_ISR.c ****     /* Set the ISR to point to the timer_ISR Interrupt. */
ARM GAS  C:\Users\Sam\AppData\Local\Temp\ccLx1kzE.s 			page 4


  91:.\Generated_Source\PSoC4/timer_ISR.c ****     timer_ISR_SetVector(address);
  82              		.loc 1 91 0
  83 000c 7B68     		ldr	r3, [r7, #4]
  84 000e 181C     		mov	r0, r3
  85 0010 FFF7FEFF 		bl	timer_ISR_SetVector
  92:.\Generated_Source\PSoC4/timer_ISR.c **** 
  93:.\Generated_Source\PSoC4/timer_ISR.c ****     /* Set the priority. */
  94:.\Generated_Source\PSoC4/timer_ISR.c ****     timer_ISR_SetPriority((uint8)timer_ISR_INTC_PRIOR_NUMBER);
  86              		.loc 1 94 0
  87 0014 0320     		mov	r0, #3
  88 0016 FFF7FEFF 		bl	timer_ISR_SetPriority
  95:.\Generated_Source\PSoC4/timer_ISR.c **** 
  96:.\Generated_Source\PSoC4/timer_ISR.c ****     /* Enable it. */
  97:.\Generated_Source\PSoC4/timer_ISR.c ****     timer_ISR_Enable();
  89              		.loc 1 97 0
  90 001a FFF7FEFF 		bl	timer_ISR_Enable
  98:.\Generated_Source\PSoC4/timer_ISR.c **** }
  91              		.loc 1 98 0
  92 001e BD46     		mov	sp, r7
  93 0020 02B0     		add	sp, sp, #8
  94              		@ sp needed for prologue
  95 0022 80BD     		pop	{r7, pc}
  96              		.cfi_endproc
  97              	.LFE1:
  98              		.size	timer_ISR_StartEx, .-timer_ISR_StartEx
  99              		.section	.text.timer_ISR_Stop,"ax",%progbits
 100              		.align	2
 101              		.global	timer_ISR_Stop
 102              		.code	16
 103              		.thumb_func
 104              		.type	timer_ISR_Stop, %function
 105              	timer_ISR_Stop:
 106              	.LFB2:
  99:.\Generated_Source\PSoC4/timer_ISR.c **** 
 100:.\Generated_Source\PSoC4/timer_ISR.c **** 
 101:.\Generated_Source\PSoC4/timer_ISR.c **** /*******************************************************************************
 102:.\Generated_Source\PSoC4/timer_ISR.c **** * Function Name: timer_ISR_Stop
 103:.\Generated_Source\PSoC4/timer_ISR.c **** ********************************************************************************
 104:.\Generated_Source\PSoC4/timer_ISR.c **** *
 105:.\Generated_Source\PSoC4/timer_ISR.c **** * Summary:
 106:.\Generated_Source\PSoC4/timer_ISR.c **** *   Disables and removes the interrupt.
 107:.\Generated_Source\PSoC4/timer_ISR.c **** *
 108:.\Generated_Source\PSoC4/timer_ISR.c **** * Parameters:  
 109:.\Generated_Source\PSoC4/timer_ISR.c **** *
 110:.\Generated_Source\PSoC4/timer_ISR.c **** * Return:
 111:.\Generated_Source\PSoC4/timer_ISR.c **** *   None
 112:.\Generated_Source\PSoC4/timer_ISR.c **** *
 113:.\Generated_Source\PSoC4/timer_ISR.c **** *******************************************************************************/
 114:.\Generated_Source\PSoC4/timer_ISR.c **** void timer_ISR_Stop(void)
 115:.\Generated_Source\PSoC4/timer_ISR.c **** {
 107              		.loc 1 115 0
 108              		.cfi_startproc
 109 0000 80B5     		push	{r7, lr}
 110              	.LCFI5:
 111              		.cfi_def_cfa_offset 8
 112              		.cfi_offset 7, -8
 113              		.cfi_offset 14, -4
ARM GAS  C:\Users\Sam\AppData\Local\Temp\ccLx1kzE.s 			page 5


 114 0002 00AF     		add	r7, sp, #0
 115              	.LCFI6:
 116              		.cfi_def_cfa_register 7
 116:.\Generated_Source\PSoC4/timer_ISR.c ****     /* Disable this interrupt. */
 117:.\Generated_Source\PSoC4/timer_ISR.c ****     timer_ISR_Disable();
 117              		.loc 1 117 0
 118 0004 FFF7FEFF 		bl	timer_ISR_Disable
 118:.\Generated_Source\PSoC4/timer_ISR.c **** 
 119:.\Generated_Source\PSoC4/timer_ISR.c ****     /* Set the ISR to point to the passive one. */
 120:.\Generated_Source\PSoC4/timer_ISR.c ****     timer_ISR_SetVector(&IntDefaultHandler);
 119              		.loc 1 120 0
 120 0008 024B     		ldr	r3, .L6
 121 000a 181C     		mov	r0, r3
 122 000c FFF7FEFF 		bl	timer_ISR_SetVector
 121:.\Generated_Source\PSoC4/timer_ISR.c **** }
 123              		.loc 1 121 0
 124 0010 BD46     		mov	sp, r7
 125              		@ sp needed for prologue
 126 0012 80BD     		pop	{r7, pc}
 127              	.L7:
 128              		.align	2
 129              	.L6:
 130 0014 00000000 		.word	IntDefaultHandler
 131              		.cfi_endproc
 132              	.LFE2:
 133              		.size	timer_ISR_Stop, .-timer_ISR_Stop
 134              		.section	.text.timer_ISR_Interrupt,"ax",%progbits
 135              		.align	2
 136              		.global	timer_ISR_Interrupt
 137              		.code	16
 138              		.thumb_func
 139              		.type	timer_ISR_Interrupt, %function
 140              	timer_ISR_Interrupt:
 141              	.LFB3:
 122:.\Generated_Source\PSoC4/timer_ISR.c **** 
 123:.\Generated_Source\PSoC4/timer_ISR.c **** 
 124:.\Generated_Source\PSoC4/timer_ISR.c **** /*******************************************************************************
 125:.\Generated_Source\PSoC4/timer_ISR.c **** * Function Name: timer_ISR_Interrupt
 126:.\Generated_Source\PSoC4/timer_ISR.c **** ********************************************************************************
 127:.\Generated_Source\PSoC4/timer_ISR.c **** *
 128:.\Generated_Source\PSoC4/timer_ISR.c **** * Summary:
 129:.\Generated_Source\PSoC4/timer_ISR.c **** *   The default Interrupt Service Routine for timer_ISR.
 130:.\Generated_Source\PSoC4/timer_ISR.c **** *
 131:.\Generated_Source\PSoC4/timer_ISR.c **** *   Add custom code between the coments to keep the next version of this file
 132:.\Generated_Source\PSoC4/timer_ISR.c **** *   from over writting your code.
 133:.\Generated_Source\PSoC4/timer_ISR.c **** *
 134:.\Generated_Source\PSoC4/timer_ISR.c **** * Parameters:  
 135:.\Generated_Source\PSoC4/timer_ISR.c **** *   None
 136:.\Generated_Source\PSoC4/timer_ISR.c **** *
 137:.\Generated_Source\PSoC4/timer_ISR.c **** * Return:
 138:.\Generated_Source\PSoC4/timer_ISR.c **** *   None
 139:.\Generated_Source\PSoC4/timer_ISR.c **** *
 140:.\Generated_Source\PSoC4/timer_ISR.c **** *******************************************************************************/
 141:.\Generated_Source\PSoC4/timer_ISR.c **** CY_ISR(timer_ISR_Interrupt)
 142:.\Generated_Source\PSoC4/timer_ISR.c **** {
 142              		.loc 1 142 0
 143              		.cfi_startproc
ARM GAS  C:\Users\Sam\AppData\Local\Temp\ccLx1kzE.s 			page 6


 144 0000 80B5     		push	{r7, lr}
 145              	.LCFI7:
 146              		.cfi_def_cfa_offset 8
 147              		.cfi_offset 7, -8
 148              		.cfi_offset 14, -4
 149 0002 82B0     		sub	sp, sp, #8
 150              	.LCFI8:
 151              		.cfi_def_cfa_offset 16
 152 0004 00AF     		add	r7, sp, #0
 153              	.LCFI9:
 154              		.cfi_def_cfa_register 7
 143:.\Generated_Source\PSoC4/timer_ISR.c ****     /*  Place your Interrupt code here. */
 144:.\Generated_Source\PSoC4/timer_ISR.c ****     /* `#START timer_ISR_Interrupt` */
 145:.\Generated_Source\PSoC4/timer_ISR.c ****     uint32 source;
 146:.\Generated_Source\PSoC4/timer_ISR.c ****     interruptFlag = 1;
 155              		.loc 1 146 0
 156 0006 074B     		ldr	r3, .L9
 157 0008 0122     		mov	r2, #1
 158 000a 1A70     		strb	r2, [r3]
 147:.\Generated_Source\PSoC4/timer_ISR.c **** 	source = Timer_GetInterruptSource();
 159              		.loc 1 147 0
 160 000c FFF7FEFF 		bl	Timer_GetInterruptSource
 161 0010 031C     		mov	r3, r0
 162 0012 7B60     		str	r3, [r7, #4]
 148:.\Generated_Source\PSoC4/timer_ISR.c ****     Timer_ClearInterrupt(source);
 163              		.loc 1 148 0
 164 0014 7B68     		ldr	r3, [r7, #4]
 165 0016 181C     		mov	r0, r3
 166 0018 FFF7FEFF 		bl	Timer_ClearInterrupt
 149:.\Generated_Source\PSoC4/timer_ISR.c ****     /* `#END` */
 150:.\Generated_Source\PSoC4/timer_ISR.c **** }
 167              		.loc 1 150 0
 168 001c BD46     		mov	sp, r7
 169 001e 02B0     		add	sp, sp, #8
 170              		@ sp needed for prologue
 171 0020 80BD     		pop	{r7, pc}
 172              	.L10:
 173 0022 C046     		.align	2
 174              	.L9:
 175 0024 00000000 		.word	interruptFlag
 176              		.cfi_endproc
 177              	.LFE3:
 178              		.size	timer_ISR_Interrupt, .-timer_ISR_Interrupt
 179              		.section	.text.timer_ISR_SetVector,"ax",%progbits
 180              		.align	2
 181              		.global	timer_ISR_SetVector
 182              		.code	16
 183              		.thumb_func
 184              		.type	timer_ISR_SetVector, %function
 185              	timer_ISR_SetVector:
 186              	.LFB4:
 151:.\Generated_Source\PSoC4/timer_ISR.c **** 
 152:.\Generated_Source\PSoC4/timer_ISR.c **** 
 153:.\Generated_Source\PSoC4/timer_ISR.c **** /*******************************************************************************
 154:.\Generated_Source\PSoC4/timer_ISR.c **** * Function Name: timer_ISR_SetVector
 155:.\Generated_Source\PSoC4/timer_ISR.c **** ********************************************************************************
 156:.\Generated_Source\PSoC4/timer_ISR.c **** *
ARM GAS  C:\Users\Sam\AppData\Local\Temp\ccLx1kzE.s 			page 7


 157:.\Generated_Source\PSoC4/timer_ISR.c **** * Summary:
 158:.\Generated_Source\PSoC4/timer_ISR.c **** *   Change the ISR vector for the Interrupt. Note calling timer_ISR_Start
 159:.\Generated_Source\PSoC4/timer_ISR.c **** *   will override any effect this method would have had. To set the vector 
 160:.\Generated_Source\PSoC4/timer_ISR.c **** *   before the component has been started use timer_ISR_StartEx instead.
 161:.\Generated_Source\PSoC4/timer_ISR.c **** *
 162:.\Generated_Source\PSoC4/timer_ISR.c **** * Parameters:
 163:.\Generated_Source\PSoC4/timer_ISR.c **** *   address: Address of the ISR to set in the interrupt vector table.
 164:.\Generated_Source\PSoC4/timer_ISR.c **** *
 165:.\Generated_Source\PSoC4/timer_ISR.c **** * Return:
 166:.\Generated_Source\PSoC4/timer_ISR.c **** *   None
 167:.\Generated_Source\PSoC4/timer_ISR.c **** *
 168:.\Generated_Source\PSoC4/timer_ISR.c **** *******************************************************************************/
 169:.\Generated_Source\PSoC4/timer_ISR.c **** void timer_ISR_SetVector(cyisraddress address)
 170:.\Generated_Source\PSoC4/timer_ISR.c **** {
 187              		.loc 1 170 0
 188              		.cfi_startproc
 189 0000 80B5     		push	{r7, lr}
 190              	.LCFI10:
 191              		.cfi_def_cfa_offset 8
 192              		.cfi_offset 7, -8
 193              		.cfi_offset 14, -4
 194 0002 82B0     		sub	sp, sp, #8
 195              	.LCFI11:
 196              		.cfi_def_cfa_offset 16
 197 0004 00AF     		add	r7, sp, #0
 198              	.LCFI12:
 199              		.cfi_def_cfa_register 7
 200 0006 7860     		str	r0, [r7, #4]
 171:.\Generated_Source\PSoC4/timer_ISR.c ****     CyRamVectors[CYINT_IRQ_BASE + timer_ISR__INTC_NUMBER] = address;
 201              		.loc 1 171 0
 202 0008 034A     		ldr	r2, .L12
 203 000a 8023     		mov	r3, #128
 204 000c 7968     		ldr	r1, [r7, #4]
 205 000e D150     		str	r1, [r2, r3]
 172:.\Generated_Source\PSoC4/timer_ISR.c **** }
 206              		.loc 1 172 0
 207 0010 BD46     		mov	sp, r7
 208 0012 02B0     		add	sp, sp, #8
 209              		@ sp needed for prologue
 210 0014 80BD     		pop	{r7, pc}
 211              	.L13:
 212 0016 C046     		.align	2
 213              	.L12:
 214 0018 00000000 		.word	CyRamVectors
 215              		.cfi_endproc
 216              	.LFE4:
 217              		.size	timer_ISR_SetVector, .-timer_ISR_SetVector
 218              		.section	.text.timer_ISR_GetVector,"ax",%progbits
 219              		.align	2
 220              		.global	timer_ISR_GetVector
 221              		.code	16
 222              		.thumb_func
 223              		.type	timer_ISR_GetVector, %function
 224              	timer_ISR_GetVector:
 225              	.LFB5:
 173:.\Generated_Source\PSoC4/timer_ISR.c **** 
 174:.\Generated_Source\PSoC4/timer_ISR.c **** 
ARM GAS  C:\Users\Sam\AppData\Local\Temp\ccLx1kzE.s 			page 8


 175:.\Generated_Source\PSoC4/timer_ISR.c **** /*******************************************************************************
 176:.\Generated_Source\PSoC4/timer_ISR.c **** * Function Name: timer_ISR_GetVector
 177:.\Generated_Source\PSoC4/timer_ISR.c **** ********************************************************************************
 178:.\Generated_Source\PSoC4/timer_ISR.c **** *
 179:.\Generated_Source\PSoC4/timer_ISR.c **** * Summary:
 180:.\Generated_Source\PSoC4/timer_ISR.c **** *   Gets the "address" of the current ISR vector for the Interrupt.
 181:.\Generated_Source\PSoC4/timer_ISR.c **** *
 182:.\Generated_Source\PSoC4/timer_ISR.c **** * Parameters:
 183:.\Generated_Source\PSoC4/timer_ISR.c **** *   None
 184:.\Generated_Source\PSoC4/timer_ISR.c **** *
 185:.\Generated_Source\PSoC4/timer_ISR.c **** * Return:
 186:.\Generated_Source\PSoC4/timer_ISR.c **** *   Address of the ISR in the interrupt vector table.
 187:.\Generated_Source\PSoC4/timer_ISR.c **** *
 188:.\Generated_Source\PSoC4/timer_ISR.c **** *******************************************************************************/
 189:.\Generated_Source\PSoC4/timer_ISR.c **** cyisraddress timer_ISR_GetVector(void)
 190:.\Generated_Source\PSoC4/timer_ISR.c **** {
 226              		.loc 1 190 0
 227              		.cfi_startproc
 228 0000 80B5     		push	{r7, lr}
 229              	.LCFI13:
 230              		.cfi_def_cfa_offset 8
 231              		.cfi_offset 7, -8
 232              		.cfi_offset 14, -4
 233 0002 00AF     		add	r7, sp, #0
 234              	.LCFI14:
 235              		.cfi_def_cfa_register 7
 191:.\Generated_Source\PSoC4/timer_ISR.c ****     return CyRamVectors[CYINT_IRQ_BASE + timer_ISR__INTC_NUMBER];
 236              		.loc 1 191 0
 237 0004 024A     		ldr	r2, .L16
 238 0006 8023     		mov	r3, #128
 239 0008 D358     		ldr	r3, [r2, r3]
 192:.\Generated_Source\PSoC4/timer_ISR.c **** }
 240              		.loc 1 192 0
 241 000a 181C     		mov	r0, r3
 242 000c BD46     		mov	sp, r7
 243              		@ sp needed for prologue
 244 000e 80BD     		pop	{r7, pc}
 245              	.L17:
 246              		.align	2
 247              	.L16:
 248 0010 00000000 		.word	CyRamVectors
 249              		.cfi_endproc
 250              	.LFE5:
 251              		.size	timer_ISR_GetVector, .-timer_ISR_GetVector
 252              		.section	.text.timer_ISR_SetPriority,"ax",%progbits
 253              		.align	2
 254              		.global	timer_ISR_SetPriority
 255              		.code	16
 256              		.thumb_func
 257              		.type	timer_ISR_SetPriority, %function
 258              	timer_ISR_SetPriority:
 259              	.LFB6:
 193:.\Generated_Source\PSoC4/timer_ISR.c **** 
 194:.\Generated_Source\PSoC4/timer_ISR.c **** 
 195:.\Generated_Source\PSoC4/timer_ISR.c **** /*******************************************************************************
 196:.\Generated_Source\PSoC4/timer_ISR.c **** * Function Name: timer_ISR_SetPriority
 197:.\Generated_Source\PSoC4/timer_ISR.c **** ********************************************************************************
ARM GAS  C:\Users\Sam\AppData\Local\Temp\ccLx1kzE.s 			page 9


 198:.\Generated_Source\PSoC4/timer_ISR.c **** *
 199:.\Generated_Source\PSoC4/timer_ISR.c **** * Summary:
 200:.\Generated_Source\PSoC4/timer_ISR.c **** *   Sets the Priority of the Interrupt. Note calling timer_ISR_Start
 201:.\Generated_Source\PSoC4/timer_ISR.c **** *   or timer_ISR_StartEx will override any effect this method would 
 202:.\Generated_Source\PSoC4/timer_ISR.c **** *   have had. This method should only be called after timer_ISR_Start or 
 203:.\Generated_Source\PSoC4/timer_ISR.c **** *   timer_ISR_StartEx has been called. To set the initial
 204:.\Generated_Source\PSoC4/timer_ISR.c **** *   priority for the component use the cydwr file in the tool.
 205:.\Generated_Source\PSoC4/timer_ISR.c **** *
 206:.\Generated_Source\PSoC4/timer_ISR.c **** * Parameters:
 207:.\Generated_Source\PSoC4/timer_ISR.c **** *   priority: Priority of the interrupt. 0 - 3, 0 being the highest.
 208:.\Generated_Source\PSoC4/timer_ISR.c **** *
 209:.\Generated_Source\PSoC4/timer_ISR.c **** * Return:
 210:.\Generated_Source\PSoC4/timer_ISR.c **** *   None
 211:.\Generated_Source\PSoC4/timer_ISR.c **** *
 212:.\Generated_Source\PSoC4/timer_ISR.c **** *******************************************************************************/
 213:.\Generated_Source\PSoC4/timer_ISR.c **** void timer_ISR_SetPriority(uint8 priority)
 214:.\Generated_Source\PSoC4/timer_ISR.c **** {
 260              		.loc 1 214 0
 261              		.cfi_startproc
 262 0000 90B5     		push	{r4, r7, lr}
 263              	.LCFI15:
 264              		.cfi_def_cfa_offset 12
 265              		.cfi_offset 4, -12
 266              		.cfi_offset 7, -8
 267              		.cfi_offset 14, -4
 268 0002 85B0     		sub	sp, sp, #20
 269              	.LCFI16:
 270              		.cfi_def_cfa_offset 32
 271 0004 00AF     		add	r7, sp, #0
 272              	.LCFI17:
 273              		.cfi_def_cfa_register 7
 274 0006 021C     		mov	r2, r0
 275 0008 FB1D     		add	r3, r7, #7
 276 000a 1A70     		strb	r2, [r3]
 215:.\Generated_Source\PSoC4/timer_ISR.c **** 	uint8 interruptState;
 216:.\Generated_Source\PSoC4/timer_ISR.c ****     uint32 priorityOffset = ((timer_ISR__INTC_NUMBER % 4u) * 8u) + 6u;
 277              		.loc 1 216 0
 278 000c 0623     		mov	r3, #6
 279 000e FB60     		str	r3, [r7, #12]
 217:.\Generated_Source\PSoC4/timer_ISR.c ****     
 218:.\Generated_Source\PSoC4/timer_ISR.c **** 	interruptState = CyEnterCriticalSection();
 280              		.loc 1 218 0
 281 0010 3C1C     		mov	r4, r7
 282 0012 0B34     		add	r4, r4, #11
 283 0014 FFF7FEFF 		bl	CyEnterCriticalSection
 284 0018 031C     		mov	r3, r0
 285 001a 2370     		strb	r3, [r4]
 219:.\Generated_Source\PSoC4/timer_ISR.c ****     *timer_ISR_INTC_PRIOR = (*timer_ISR_INTC_PRIOR & (uint32)(~timer_ISR__INTC_PRIOR_MASK)) |
 286              		.loc 1 219 0
 287 001c 0B4B     		ldr	r3, .L19
 288 001e 0B4A     		ldr	r2, .L19
 289 0020 1268     		ldr	r2, [r2]
 290 0022 C021     		mov	r1, #192
 291 0024 101C     		mov	r0, r2
 292 0026 8843     		bic	r0, r1
 293 0028 011C     		mov	r1, r0
 220:.\Generated_Source\PSoC4/timer_ISR.c ****                                     ((uint32)priority << priorityOffset);
ARM GAS  C:\Users\Sam\AppData\Local\Temp\ccLx1kzE.s 			page 10


 294              		.loc 1 220 0
 295 002a FA1D     		add	r2, r7, #7
 296 002c 1078     		ldrb	r0, [r2]
 297 002e FA68     		ldr	r2, [r7, #12]
 298 0030 041C     		mov	r4, r0
 299 0032 9440     		lsl	r4, r4, r2
 300 0034 221C     		mov	r2, r4
 219:.\Generated_Source\PSoC4/timer_ISR.c ****     *timer_ISR_INTC_PRIOR = (*timer_ISR_INTC_PRIOR & (uint32)(~timer_ISR__INTC_PRIOR_MASK)) |
 301              		.loc 1 219 0
 302 0036 0A43     		orr	r2, r1
 303 0038 1A60     		str	r2, [r3]
 221:.\Generated_Source\PSoC4/timer_ISR.c **** 	CyExitCriticalSection(interruptState);
 304              		.loc 1 221 0
 305 003a 3B1C     		mov	r3, r7
 306 003c 0B33     		add	r3, r3, #11
 307 003e 1B78     		ldrb	r3, [r3]
 308 0040 181C     		mov	r0, r3
 309 0042 FFF7FEFF 		bl	CyExitCriticalSection
 222:.\Generated_Source\PSoC4/timer_ISR.c **** }
 310              		.loc 1 222 0
 311 0046 BD46     		mov	sp, r7
 312 0048 05B0     		add	sp, sp, #20
 313              		@ sp needed for prologue
 314 004a 90BD     		pop	{r4, r7, pc}
 315              	.L20:
 316              		.align	2
 317              	.L19:
 318 004c 10E400E0 		.word	-536812528
 319              		.cfi_endproc
 320              	.LFE6:
 321              		.size	timer_ISR_SetPriority, .-timer_ISR_SetPriority
 322              		.section	.text.timer_ISR_GetPriority,"ax",%progbits
 323              		.align	2
 324              		.global	timer_ISR_GetPriority
 325              		.code	16
 326              		.thumb_func
 327              		.type	timer_ISR_GetPriority, %function
 328              	timer_ISR_GetPriority:
 329              	.LFB7:
 223:.\Generated_Source\PSoC4/timer_ISR.c **** 
 224:.\Generated_Source\PSoC4/timer_ISR.c **** 
 225:.\Generated_Source\PSoC4/timer_ISR.c **** /*******************************************************************************
 226:.\Generated_Source\PSoC4/timer_ISR.c **** * Function Name: timer_ISR_GetPriority
 227:.\Generated_Source\PSoC4/timer_ISR.c **** ********************************************************************************
 228:.\Generated_Source\PSoC4/timer_ISR.c **** *
 229:.\Generated_Source\PSoC4/timer_ISR.c **** * Summary:
 230:.\Generated_Source\PSoC4/timer_ISR.c **** *   Gets the Priority of the Interrupt.
 231:.\Generated_Source\PSoC4/timer_ISR.c **** *
 232:.\Generated_Source\PSoC4/timer_ISR.c **** * Parameters:
 233:.\Generated_Source\PSoC4/timer_ISR.c **** *   None
 234:.\Generated_Source\PSoC4/timer_ISR.c **** *
 235:.\Generated_Source\PSoC4/timer_ISR.c **** * Return:
 236:.\Generated_Source\PSoC4/timer_ISR.c **** *   Priority of the interrupt. 0 - 3, 0 being the highest.
 237:.\Generated_Source\PSoC4/timer_ISR.c **** *
 238:.\Generated_Source\PSoC4/timer_ISR.c **** *******************************************************************************/
 239:.\Generated_Source\PSoC4/timer_ISR.c **** uint8 timer_ISR_GetPriority(void)
 240:.\Generated_Source\PSoC4/timer_ISR.c **** {
ARM GAS  C:\Users\Sam\AppData\Local\Temp\ccLx1kzE.s 			page 11


 330              		.loc 1 240 0
 331              		.cfi_startproc
 332 0000 80B5     		push	{r7, lr}
 333              	.LCFI18:
 334              		.cfi_def_cfa_offset 8
 335              		.cfi_offset 7, -8
 336              		.cfi_offset 14, -4
 337 0002 82B0     		sub	sp, sp, #8
 338              	.LCFI19:
 339              		.cfi_def_cfa_offset 16
 340 0004 00AF     		add	r7, sp, #0
 341              	.LCFI20:
 342              		.cfi_def_cfa_register 7
 241:.\Generated_Source\PSoC4/timer_ISR.c ****     uint32 priority;
 242:.\Generated_Source\PSoC4/timer_ISR.c **** 	uint32 priorityOffset = ((timer_ISR__INTC_NUMBER % 4u) * 8u) + 6u;
 343              		.loc 1 242 0
 344 0006 0623     		mov	r3, #6
 345 0008 7B60     		str	r3, [r7, #4]
 243:.\Generated_Source\PSoC4/timer_ISR.c **** 
 244:.\Generated_Source\PSoC4/timer_ISR.c ****     priority = (*timer_ISR_INTC_PRIOR & timer_ISR__INTC_PRIOR_MASK) >> priorityOffset;
 346              		.loc 1 244 0
 347 000a 074B     		ldr	r3, .L23
 348 000c 1A68     		ldr	r2, [r3]
 349 000e C023     		mov	r3, #192
 350 0010 1A40     		and	r2, r3
 351 0012 7B68     		ldr	r3, [r7, #4]
 352 0014 111C     		mov	r1, r2
 353 0016 D940     		lsr	r1, r1, r3
 354 0018 0B1C     		mov	r3, r1
 355 001a 3B60     		str	r3, [r7]
 245:.\Generated_Source\PSoC4/timer_ISR.c **** 
 246:.\Generated_Source\PSoC4/timer_ISR.c ****     return (uint8)priority;
 356              		.loc 1 246 0
 357 001c 3B68     		ldr	r3, [r7]
 358 001e DBB2     		uxtb	r3, r3
 247:.\Generated_Source\PSoC4/timer_ISR.c **** }
 359              		.loc 1 247 0
 360 0020 181C     		mov	r0, r3
 361 0022 BD46     		mov	sp, r7
 362 0024 02B0     		add	sp, sp, #8
 363              		@ sp needed for prologue
 364 0026 80BD     		pop	{r7, pc}
 365              	.L24:
 366              		.align	2
 367              	.L23:
 368 0028 10E400E0 		.word	-536812528
 369              		.cfi_endproc
 370              	.LFE7:
 371              		.size	timer_ISR_GetPriority, .-timer_ISR_GetPriority
 372              		.section	.text.timer_ISR_Enable,"ax",%progbits
 373              		.align	2
 374              		.global	timer_ISR_Enable
 375              		.code	16
 376              		.thumb_func
 377              		.type	timer_ISR_Enable, %function
 378              	timer_ISR_Enable:
 379              	.LFB8:
ARM GAS  C:\Users\Sam\AppData\Local\Temp\ccLx1kzE.s 			page 12


 248:.\Generated_Source\PSoC4/timer_ISR.c **** 
 249:.\Generated_Source\PSoC4/timer_ISR.c **** 
 250:.\Generated_Source\PSoC4/timer_ISR.c **** /*******************************************************************************
 251:.\Generated_Source\PSoC4/timer_ISR.c **** * Function Name: timer_ISR_Enable
 252:.\Generated_Source\PSoC4/timer_ISR.c **** ********************************************************************************
 253:.\Generated_Source\PSoC4/timer_ISR.c **** *
 254:.\Generated_Source\PSoC4/timer_ISR.c **** * Summary:
 255:.\Generated_Source\PSoC4/timer_ISR.c **** *   Enables the interrupt.
 256:.\Generated_Source\PSoC4/timer_ISR.c **** *
 257:.\Generated_Source\PSoC4/timer_ISR.c **** * Parameters:
 258:.\Generated_Source\PSoC4/timer_ISR.c **** *   None
 259:.\Generated_Source\PSoC4/timer_ISR.c **** *
 260:.\Generated_Source\PSoC4/timer_ISR.c **** * Return:
 261:.\Generated_Source\PSoC4/timer_ISR.c **** *   None
 262:.\Generated_Source\PSoC4/timer_ISR.c **** *
 263:.\Generated_Source\PSoC4/timer_ISR.c **** *******************************************************************************/
 264:.\Generated_Source\PSoC4/timer_ISR.c **** void timer_ISR_Enable(void)
 265:.\Generated_Source\PSoC4/timer_ISR.c **** {
 380              		.loc 1 265 0
 381              		.cfi_startproc
 382 0000 80B5     		push	{r7, lr}
 383              	.LCFI21:
 384              		.cfi_def_cfa_offset 8
 385              		.cfi_offset 7, -8
 386              		.cfi_offset 14, -4
 387 0002 00AF     		add	r7, sp, #0
 388              	.LCFI22:
 389              		.cfi_def_cfa_register 7
 266:.\Generated_Source\PSoC4/timer_ISR.c ****     /* Enable the general interrupt. */
 267:.\Generated_Source\PSoC4/timer_ISR.c ****     *timer_ISR_INTC_SET_EN = timer_ISR__INTC_MASK;
 390              		.loc 1 267 0
 391 0004 024B     		ldr	r3, .L26
 392 0006 8022     		mov	r2, #128
 393 0008 5202     		lsl	r2, r2, #9
 394 000a 1A60     		str	r2, [r3]
 268:.\Generated_Source\PSoC4/timer_ISR.c **** }
 395              		.loc 1 268 0
 396 000c BD46     		mov	sp, r7
 397              		@ sp needed for prologue
 398 000e 80BD     		pop	{r7, pc}
 399              	.L27:
 400              		.align	2
 401              	.L26:
 402 0010 00E100E0 		.word	-536813312
 403              		.cfi_endproc
 404              	.LFE8:
 405              		.size	timer_ISR_Enable, .-timer_ISR_Enable
 406              		.section	.text.timer_ISR_GetState,"ax",%progbits
 407              		.align	2
 408              		.global	timer_ISR_GetState
 409              		.code	16
 410              		.thumb_func
 411              		.type	timer_ISR_GetState, %function
 412              	timer_ISR_GetState:
 413              	.LFB9:
 269:.\Generated_Source\PSoC4/timer_ISR.c **** 
 270:.\Generated_Source\PSoC4/timer_ISR.c **** 
ARM GAS  C:\Users\Sam\AppData\Local\Temp\ccLx1kzE.s 			page 13


 271:.\Generated_Source\PSoC4/timer_ISR.c **** /*******************************************************************************
 272:.\Generated_Source\PSoC4/timer_ISR.c **** * Function Name: timer_ISR_GetState
 273:.\Generated_Source\PSoC4/timer_ISR.c **** ********************************************************************************
 274:.\Generated_Source\PSoC4/timer_ISR.c **** *
 275:.\Generated_Source\PSoC4/timer_ISR.c **** * Summary:
 276:.\Generated_Source\PSoC4/timer_ISR.c **** *   Gets the state (enabled, disabled) of the Interrupt.
 277:.\Generated_Source\PSoC4/timer_ISR.c **** *
 278:.\Generated_Source\PSoC4/timer_ISR.c **** * Parameters:
 279:.\Generated_Source\PSoC4/timer_ISR.c **** *   None
 280:.\Generated_Source\PSoC4/timer_ISR.c **** *
 281:.\Generated_Source\PSoC4/timer_ISR.c **** * Return:
 282:.\Generated_Source\PSoC4/timer_ISR.c **** *   1 if enabled, 0 if disabled.
 283:.\Generated_Source\PSoC4/timer_ISR.c **** *
 284:.\Generated_Source\PSoC4/timer_ISR.c **** *******************************************************************************/
 285:.\Generated_Source\PSoC4/timer_ISR.c **** uint8 timer_ISR_GetState(void)
 286:.\Generated_Source\PSoC4/timer_ISR.c **** {
 414              		.loc 1 286 0
 415              		.cfi_startproc
 416 0000 80B5     		push	{r7, lr}
 417              	.LCFI23:
 418              		.cfi_def_cfa_offset 8
 419              		.cfi_offset 7, -8
 420              		.cfi_offset 14, -4
 421 0002 00AF     		add	r7, sp, #0
 422              	.LCFI24:
 423              		.cfi_def_cfa_register 7
 287:.\Generated_Source\PSoC4/timer_ISR.c ****     /* Get the state of the general interrupt. */
 288:.\Generated_Source\PSoC4/timer_ISR.c ****     return ((*timer_ISR_INTC_SET_EN & (uint32)timer_ISR__INTC_MASK) != 0u) ? 1u:0u;
 424              		.loc 1 288 0
 425 0004 054B     		ldr	r3, .L32
 426 0006 1A68     		ldr	r2, [r3]
 427 0008 8023     		mov	r3, #128
 428 000a 5B02     		lsl	r3, r3, #9
 429 000c 1340     		and	r3, r2
 430 000e 01D0     		beq	.L29
 431              		.loc 1 288 0 is_stmt 0 discriminator 1
 432 0010 0123     		mov	r3, #1
 433 0012 00E0     		b	.L30
 434              	.L29:
 435              		.loc 1 288 0 discriminator 2
 436 0014 0023     		mov	r3, #0
 437              	.L30:
 289:.\Generated_Source\PSoC4/timer_ISR.c **** }
 438              		.loc 1 289 0 is_stmt 1 discriminator 3
 439 0016 181C     		mov	r0, r3
 440 0018 BD46     		mov	sp, r7
 441              		@ sp needed for prologue
 442 001a 80BD     		pop	{r7, pc}
 443              	.L33:
 444              		.align	2
 445              	.L32:
 446 001c 00E100E0 		.word	-536813312
 447              		.cfi_endproc
 448              	.LFE9:
 449              		.size	timer_ISR_GetState, .-timer_ISR_GetState
 450              		.section	.text.timer_ISR_Disable,"ax",%progbits
 451              		.align	2
ARM GAS  C:\Users\Sam\AppData\Local\Temp\ccLx1kzE.s 			page 14


 452              		.global	timer_ISR_Disable
 453              		.code	16
 454              		.thumb_func
 455              		.type	timer_ISR_Disable, %function
 456              	timer_ISR_Disable:
 457              	.LFB10:
 290:.\Generated_Source\PSoC4/timer_ISR.c **** 
 291:.\Generated_Source\PSoC4/timer_ISR.c **** 
 292:.\Generated_Source\PSoC4/timer_ISR.c **** /*******************************************************************************
 293:.\Generated_Source\PSoC4/timer_ISR.c **** * Function Name: timer_ISR_Disable
 294:.\Generated_Source\PSoC4/timer_ISR.c **** ********************************************************************************
 295:.\Generated_Source\PSoC4/timer_ISR.c **** *
 296:.\Generated_Source\PSoC4/timer_ISR.c **** * Summary:
 297:.\Generated_Source\PSoC4/timer_ISR.c **** *   Disables the Interrupt.
 298:.\Generated_Source\PSoC4/timer_ISR.c **** *
 299:.\Generated_Source\PSoC4/timer_ISR.c **** * Parameters:
 300:.\Generated_Source\PSoC4/timer_ISR.c **** *   None
 301:.\Generated_Source\PSoC4/timer_ISR.c **** *
 302:.\Generated_Source\PSoC4/timer_ISR.c **** * Return:
 303:.\Generated_Source\PSoC4/timer_ISR.c **** *   None
 304:.\Generated_Source\PSoC4/timer_ISR.c **** *
 305:.\Generated_Source\PSoC4/timer_ISR.c **** *******************************************************************************/
 306:.\Generated_Source\PSoC4/timer_ISR.c **** void timer_ISR_Disable(void)
 307:.\Generated_Source\PSoC4/timer_ISR.c **** {
 458              		.loc 1 307 0
 459              		.cfi_startproc
 460 0000 80B5     		push	{r7, lr}
 461              	.LCFI25:
 462              		.cfi_def_cfa_offset 8
 463              		.cfi_offset 7, -8
 464              		.cfi_offset 14, -4
 465 0002 00AF     		add	r7, sp, #0
 466              	.LCFI26:
 467              		.cfi_def_cfa_register 7
 308:.\Generated_Source\PSoC4/timer_ISR.c ****     /* Disable the general interrupt. */
 309:.\Generated_Source\PSoC4/timer_ISR.c ****     *timer_ISR_INTC_CLR_EN = timer_ISR__INTC_MASK;
 468              		.loc 1 309 0
 469 0004 024B     		ldr	r3, .L35
 470 0006 8022     		mov	r2, #128
 471 0008 5202     		lsl	r2, r2, #9
 472 000a 1A60     		str	r2, [r3]
 310:.\Generated_Source\PSoC4/timer_ISR.c **** }
 473              		.loc 1 310 0
 474 000c BD46     		mov	sp, r7
 475              		@ sp needed for prologue
 476 000e 80BD     		pop	{r7, pc}
 477              	.L36:
 478              		.align	2
 479              	.L35:
 480 0010 80E100E0 		.word	-536813184
 481              		.cfi_endproc
 482              	.LFE10:
 483              		.size	timer_ISR_Disable, .-timer_ISR_Disable
 484              		.section	.text.timer_ISR_SetPending,"ax",%progbits
 485              		.align	2
 486              		.global	timer_ISR_SetPending
 487              		.code	16
ARM GAS  C:\Users\Sam\AppData\Local\Temp\ccLx1kzE.s 			page 15


 488              		.thumb_func
 489              		.type	timer_ISR_SetPending, %function
 490              	timer_ISR_SetPending:
 491              	.LFB11:
 311:.\Generated_Source\PSoC4/timer_ISR.c **** 
 312:.\Generated_Source\PSoC4/timer_ISR.c **** 
 313:.\Generated_Source\PSoC4/timer_ISR.c **** /*******************************************************************************
 314:.\Generated_Source\PSoC4/timer_ISR.c **** * Function Name: timer_ISR_SetPending
 315:.\Generated_Source\PSoC4/timer_ISR.c **** ********************************************************************************
 316:.\Generated_Source\PSoC4/timer_ISR.c **** *
 317:.\Generated_Source\PSoC4/timer_ISR.c **** * Summary:
 318:.\Generated_Source\PSoC4/timer_ISR.c **** *   Causes the Interrupt to enter the pending state, a software method of
 319:.\Generated_Source\PSoC4/timer_ISR.c **** *   generating the interrupt.
 320:.\Generated_Source\PSoC4/timer_ISR.c **** *
 321:.\Generated_Source\PSoC4/timer_ISR.c **** * Parameters:
 322:.\Generated_Source\PSoC4/timer_ISR.c **** *   None
 323:.\Generated_Source\PSoC4/timer_ISR.c **** *
 324:.\Generated_Source\PSoC4/timer_ISR.c **** * Return:
 325:.\Generated_Source\PSoC4/timer_ISR.c **** *   None
 326:.\Generated_Source\PSoC4/timer_ISR.c **** *
 327:.\Generated_Source\PSoC4/timer_ISR.c **** *******************************************************************************/
 328:.\Generated_Source\PSoC4/timer_ISR.c **** void timer_ISR_SetPending(void)
 329:.\Generated_Source\PSoC4/timer_ISR.c **** {
 492              		.loc 1 329 0
 493              		.cfi_startproc
 494 0000 80B5     		push	{r7, lr}
 495              	.LCFI27:
 496              		.cfi_def_cfa_offset 8
 497              		.cfi_offset 7, -8
 498              		.cfi_offset 14, -4
 499 0002 00AF     		add	r7, sp, #0
 500              	.LCFI28:
 501              		.cfi_def_cfa_register 7
 330:.\Generated_Source\PSoC4/timer_ISR.c ****     *timer_ISR_INTC_SET_PD = timer_ISR__INTC_MASK;
 502              		.loc 1 330 0
 503 0004 024B     		ldr	r3, .L38
 504 0006 8022     		mov	r2, #128
 505 0008 5202     		lsl	r2, r2, #9
 506 000a 1A60     		str	r2, [r3]
 331:.\Generated_Source\PSoC4/timer_ISR.c **** }
 507              		.loc 1 331 0
 508 000c BD46     		mov	sp, r7
 509              		@ sp needed for prologue
 510 000e 80BD     		pop	{r7, pc}
 511              	.L39:
 512              		.align	2
 513              	.L38:
 514 0010 00E200E0 		.word	-536813056
 515              		.cfi_endproc
 516              	.LFE11:
 517              		.size	timer_ISR_SetPending, .-timer_ISR_SetPending
 518              		.section	.text.timer_ISR_ClearPending,"ax",%progbits
 519              		.align	2
 520              		.global	timer_ISR_ClearPending
 521              		.code	16
 522              		.thumb_func
 523              		.type	timer_ISR_ClearPending, %function
ARM GAS  C:\Users\Sam\AppData\Local\Temp\ccLx1kzE.s 			page 16


 524              	timer_ISR_ClearPending:
 525              	.LFB12:
 332:.\Generated_Source\PSoC4/timer_ISR.c **** 
 333:.\Generated_Source\PSoC4/timer_ISR.c **** 
 334:.\Generated_Source\PSoC4/timer_ISR.c **** /*******************************************************************************
 335:.\Generated_Source\PSoC4/timer_ISR.c **** * Function Name: timer_ISR_ClearPending
 336:.\Generated_Source\PSoC4/timer_ISR.c **** ********************************************************************************
 337:.\Generated_Source\PSoC4/timer_ISR.c **** *
 338:.\Generated_Source\PSoC4/timer_ISR.c **** * Summary:
 339:.\Generated_Source\PSoC4/timer_ISR.c **** *   Clears a pending interrupt.
 340:.\Generated_Source\PSoC4/timer_ISR.c **** *
 341:.\Generated_Source\PSoC4/timer_ISR.c **** * Parameters:
 342:.\Generated_Source\PSoC4/timer_ISR.c **** *   None
 343:.\Generated_Source\PSoC4/timer_ISR.c **** *
 344:.\Generated_Source\PSoC4/timer_ISR.c **** * Return:
 345:.\Generated_Source\PSoC4/timer_ISR.c **** *   None
 346:.\Generated_Source\PSoC4/timer_ISR.c **** *
 347:.\Generated_Source\PSoC4/timer_ISR.c **** *******************************************************************************/
 348:.\Generated_Source\PSoC4/timer_ISR.c **** void timer_ISR_ClearPending(void)
 349:.\Generated_Source\PSoC4/timer_ISR.c **** {
 526              		.loc 1 349 0
 527              		.cfi_startproc
 528 0000 80B5     		push	{r7, lr}
 529              	.LCFI29:
 530              		.cfi_def_cfa_offset 8
 531              		.cfi_offset 7, -8
 532              		.cfi_offset 14, -4
 533 0002 00AF     		add	r7, sp, #0
 534              	.LCFI30:
 535              		.cfi_def_cfa_register 7
 350:.\Generated_Source\PSoC4/timer_ISR.c ****     *timer_ISR_INTC_CLR_PD = timer_ISR__INTC_MASK;
 536              		.loc 1 350 0
 537 0004 024B     		ldr	r3, .L41
 538 0006 8022     		mov	r2, #128
 539 0008 5202     		lsl	r2, r2, #9
 540 000a 1A60     		str	r2, [r3]
 351:.\Generated_Source\PSoC4/timer_ISR.c **** }
 541              		.loc 1 351 0
 542 000c BD46     		mov	sp, r7
 543              		@ sp needed for prologue
 544 000e 80BD     		pop	{r7, pc}
 545              	.L42:
 546              		.align	2
 547              	.L41:
 548 0010 80E200E0 		.word	-536812928
 549              		.cfi_endproc
 550              	.LFE12:
 551              		.size	timer_ISR_ClearPending, .-timer_ISR_ClearPending
 552              		.text
 553              	.Letext0:
 554              		.file 2 "./Generated_Source/PSoC4/cytypes.h"