ARM GAS  C:\Users\Sam\AppData\Local\Temp\cc22XOat.s 			page 1


   1              		.cpu cortex-m0
   2              		.fpu softvfp
   3              		.eabi_attribute 20, 1
   4              		.eabi_attribute 21, 1
   5              		.eabi_attribute 23, 3
   6              		.eabi_attribute 24, 1
   7              		.eabi_attribute 25, 1
   8              		.eabi_attribute 26, 1
   9              		.eabi_attribute 30, 6
  10              		.eabi_attribute 34, 0
  11              		.eabi_attribute 18, 4
  12              		.code	16
  13              		.file	"timerInterrupt.c"
  14              		.text
  15              	.Ltext0:
  16              		.cfi_sections	.debug_frame
  17              		.section	.text.timerInterrupt_Start,"ax",%progbits
  18              		.align	2
  19              		.global	timerInterrupt_Start
  20              		.code	16
  21              		.thumb_func
  22              		.type	timerInterrupt_Start, %function
  23              	timerInterrupt_Start:
  24              	.LFB0:
  25              		.file 1 ".\\Generated_Source\\PSoC4\\timerInterrupt.c"
   1:.\Generated_Source\PSoC4/timerInterrupt.c **** /*******************************************************************************
   2:.\Generated_Source\PSoC4/timerInterrupt.c **** * File Name: timerInterrupt.c  
   3:.\Generated_Source\PSoC4/timerInterrupt.c **** * Version 1.70
   4:.\Generated_Source\PSoC4/timerInterrupt.c **** *
   5:.\Generated_Source\PSoC4/timerInterrupt.c **** *  Description:
   6:.\Generated_Source\PSoC4/timerInterrupt.c **** *   API for controlling the state of an interrupt.
   7:.\Generated_Source\PSoC4/timerInterrupt.c **** *
   8:.\Generated_Source\PSoC4/timerInterrupt.c **** *
   9:.\Generated_Source\PSoC4/timerInterrupt.c **** *  Note:
  10:.\Generated_Source\PSoC4/timerInterrupt.c **** *
  11:.\Generated_Source\PSoC4/timerInterrupt.c **** ********************************************************************************
  12:.\Generated_Source\PSoC4/timerInterrupt.c **** * Copyright 2008-2012, Cypress Semiconductor Corporation.  All rights reserved.
  13:.\Generated_Source\PSoC4/timerInterrupt.c **** * You may use this file only in accordance with the license, terms, conditions, 
  14:.\Generated_Source\PSoC4/timerInterrupt.c **** * disclaimers, and limitations in the end user license agreement accompanying 
  15:.\Generated_Source\PSoC4/timerInterrupt.c **** * the software package with which this file was provided.
  16:.\Generated_Source\PSoC4/timerInterrupt.c **** *******************************************************************************/
  17:.\Generated_Source\PSoC4/timerInterrupt.c **** 
  18:.\Generated_Source\PSoC4/timerInterrupt.c **** 
  19:.\Generated_Source\PSoC4/timerInterrupt.c **** #include <cydevice_trm.h>
  20:.\Generated_Source\PSoC4/timerInterrupt.c **** #include <CyLib.h>
  21:.\Generated_Source\PSoC4/timerInterrupt.c **** #include <timerInterrupt.h>
  22:.\Generated_Source\PSoC4/timerInterrupt.c **** 
  23:.\Generated_Source\PSoC4/timerInterrupt.c **** #if !defined(timerInterrupt__REMOVED) /* Check for removal by optimization */
  24:.\Generated_Source\PSoC4/timerInterrupt.c **** 
  25:.\Generated_Source\PSoC4/timerInterrupt.c **** /*******************************************************************************
  26:.\Generated_Source\PSoC4/timerInterrupt.c **** *  Place your includes, defines and code here 
  27:.\Generated_Source\PSoC4/timerInterrupt.c **** ********************************************************************************/
  28:.\Generated_Source\PSoC4/timerInterrupt.c **** /* `#START timerInterrupt_intc` */
  29:.\Generated_Source\PSoC4/timerInterrupt.c **** extern uint8 volatile interruptFlag;
  30:.\Generated_Source\PSoC4/timerInterrupt.c **** /* `#END` */
  31:.\Generated_Source\PSoC4/timerInterrupt.c **** 
  32:.\Generated_Source\PSoC4/timerInterrupt.c **** extern cyisraddress CyRamVectors[CYINT_IRQ_BASE + CY_NUM_INTERRUPTS];
ARM GAS  C:\Users\Sam\AppData\Local\Temp\cc22XOat.s 			page 2


  33:.\Generated_Source\PSoC4/timerInterrupt.c **** 
  34:.\Generated_Source\PSoC4/timerInterrupt.c **** /* Declared in startup, used to set unused interrupts to. */
  35:.\Generated_Source\PSoC4/timerInterrupt.c **** CY_ISR_PROTO(IntDefaultHandler);
  36:.\Generated_Source\PSoC4/timerInterrupt.c **** 
  37:.\Generated_Source\PSoC4/timerInterrupt.c **** 
  38:.\Generated_Source\PSoC4/timerInterrupt.c **** /*******************************************************************************
  39:.\Generated_Source\PSoC4/timerInterrupt.c **** * Function Name: timerInterrupt_Start
  40:.\Generated_Source\PSoC4/timerInterrupt.c **** ********************************************************************************
  41:.\Generated_Source\PSoC4/timerInterrupt.c **** *
  42:.\Generated_Source\PSoC4/timerInterrupt.c **** * Summary:
  43:.\Generated_Source\PSoC4/timerInterrupt.c **** *  Set up the interrupt and enable it.
  44:.\Generated_Source\PSoC4/timerInterrupt.c **** *
  45:.\Generated_Source\PSoC4/timerInterrupt.c **** * Parameters:  
  46:.\Generated_Source\PSoC4/timerInterrupt.c **** *   None
  47:.\Generated_Source\PSoC4/timerInterrupt.c **** *
  48:.\Generated_Source\PSoC4/timerInterrupt.c **** * Return:
  49:.\Generated_Source\PSoC4/timerInterrupt.c **** *   None
  50:.\Generated_Source\PSoC4/timerInterrupt.c **** *
  51:.\Generated_Source\PSoC4/timerInterrupt.c **** *******************************************************************************/
  52:.\Generated_Source\PSoC4/timerInterrupt.c **** void timerInterrupt_Start(void)
  53:.\Generated_Source\PSoC4/timerInterrupt.c **** {
  26              		.loc 1 53 0
  27              		.cfi_startproc
  28 0000 80B5     		push	{r7, lr}
  29              	.LCFI0:
  30              		.cfi_def_cfa_offset 8
  31              		.cfi_offset 7, -8
  32              		.cfi_offset 14, -4
  33 0002 00AF     		add	r7, sp, #0
  34              	.LCFI1:
  35              		.cfi_def_cfa_register 7
  54:.\Generated_Source\PSoC4/timerInterrupt.c ****     /* For all we know the interrupt is active. */
  55:.\Generated_Source\PSoC4/timerInterrupt.c ****     timerInterrupt_Disable();
  36              		.loc 1 55 0
  37 0004 FFF7FEFF 		bl	timerInterrupt_Disable
  56:.\Generated_Source\PSoC4/timerInterrupt.c **** 
  57:.\Generated_Source\PSoC4/timerInterrupt.c ****     /* Set the ISR to point to the timerInterrupt Interrupt. */
  58:.\Generated_Source\PSoC4/timerInterrupt.c ****     timerInterrupt_SetVector(&timerInterrupt_Interrupt);
  38              		.loc 1 58 0
  39 0008 054B     		ldr	r3, .L2
  40 000a 181C     		mov	r0, r3
  41 000c FFF7FEFF 		bl	timerInterrupt_SetVector
  59:.\Generated_Source\PSoC4/timerInterrupt.c **** 
  60:.\Generated_Source\PSoC4/timerInterrupt.c ****     /* Set the priority. */
  61:.\Generated_Source\PSoC4/timerInterrupt.c ****     timerInterrupt_SetPriority((uint8)timerInterrupt_INTC_PRIOR_NUMBER);
  42              		.loc 1 61 0
  43 0010 0320     		mov	r0, #3
  44 0012 FFF7FEFF 		bl	timerInterrupt_SetPriority
  62:.\Generated_Source\PSoC4/timerInterrupt.c **** 
  63:.\Generated_Source\PSoC4/timerInterrupt.c ****     /* Enable it. */
  64:.\Generated_Source\PSoC4/timerInterrupt.c ****     timerInterrupt_Enable();
  45              		.loc 1 64 0
  46 0016 FFF7FEFF 		bl	timerInterrupt_Enable
  65:.\Generated_Source\PSoC4/timerInterrupt.c **** }
  47              		.loc 1 65 0
  48 001a BD46     		mov	sp, r7
  49              		@ sp needed for prologue
ARM GAS  C:\Users\Sam\AppData\Local\Temp\cc22XOat.s 			page 3


  50 001c 80BD     		pop	{r7, pc}
  51              	.L3:
  52 001e C046     		.align	2
  53              	.L2:
  54 0020 00000000 		.word	timerInterrupt_Interrupt
  55              		.cfi_endproc
  56              	.LFE0:
  57              		.size	timerInterrupt_Start, .-timerInterrupt_Start
  58              		.section	.text.timerInterrupt_StartEx,"ax",%progbits
  59              		.align	2
  60              		.global	timerInterrupt_StartEx
  61              		.code	16
  62              		.thumb_func
  63              		.type	timerInterrupt_StartEx, %function
  64              	timerInterrupt_StartEx:
  65              	.LFB1:
  66:.\Generated_Source\PSoC4/timerInterrupt.c **** 
  67:.\Generated_Source\PSoC4/timerInterrupt.c **** 
  68:.\Generated_Source\PSoC4/timerInterrupt.c **** /*******************************************************************************
  69:.\Generated_Source\PSoC4/timerInterrupt.c **** * Function Name: timerInterrupt_StartEx
  70:.\Generated_Source\PSoC4/timerInterrupt.c **** ********************************************************************************
  71:.\Generated_Source\PSoC4/timerInterrupt.c **** *
  72:.\Generated_Source\PSoC4/timerInterrupt.c **** * Summary:
  73:.\Generated_Source\PSoC4/timerInterrupt.c **** *  Set up the interrupt and enable it.
  74:.\Generated_Source\PSoC4/timerInterrupt.c **** *
  75:.\Generated_Source\PSoC4/timerInterrupt.c **** * Parameters:  
  76:.\Generated_Source\PSoC4/timerInterrupt.c **** *   address: Address of the ISR to set in the interrupt vector table.
  77:.\Generated_Source\PSoC4/timerInterrupt.c **** *
  78:.\Generated_Source\PSoC4/timerInterrupt.c **** * Return:
  79:.\Generated_Source\PSoC4/timerInterrupt.c **** *   None
  80:.\Generated_Source\PSoC4/timerInterrupt.c **** *
  81:.\Generated_Source\PSoC4/timerInterrupt.c **** *******************************************************************************/
  82:.\Generated_Source\PSoC4/timerInterrupt.c **** void timerInterrupt_StartEx(cyisraddress address)
  83:.\Generated_Source\PSoC4/timerInterrupt.c **** {
  66              		.loc 1 83 0
  67              		.cfi_startproc
  68 0000 80B5     		push	{r7, lr}
  69              	.LCFI2:
  70              		.cfi_def_cfa_offset 8
  71              		.cfi_offset 7, -8
  72              		.cfi_offset 14, -4
  73 0002 82B0     		sub	sp, sp, #8
  74              	.LCFI3:
  75              		.cfi_def_cfa_offset 16
  76 0004 00AF     		add	r7, sp, #0
  77              	.LCFI4:
  78              		.cfi_def_cfa_register 7
  79 0006 7860     		str	r0, [r7, #4]
  84:.\Generated_Source\PSoC4/timerInterrupt.c ****     /* For all we know the interrupt is active. */
  85:.\Generated_Source\PSoC4/timerInterrupt.c ****     timerInterrupt_Disable();
  80              		.loc 1 85 0
  81 0008 FFF7FEFF 		bl	timerInterrupt_Disable
  86:.\Generated_Source\PSoC4/timerInterrupt.c **** 
  87:.\Generated_Source\PSoC4/timerInterrupt.c ****     /* Set the ISR to point to the timerInterrupt Interrupt. */
  88:.\Generated_Source\PSoC4/timerInterrupt.c ****     timerInterrupt_SetVector(address);
  82              		.loc 1 88 0
  83 000c 7B68     		ldr	r3, [r7, #4]
ARM GAS  C:\Users\Sam\AppData\Local\Temp\cc22XOat.s 			page 4


  84 000e 181C     		mov	r0, r3
  85 0010 FFF7FEFF 		bl	timerInterrupt_SetVector
  89:.\Generated_Source\PSoC4/timerInterrupt.c **** 
  90:.\Generated_Source\PSoC4/timerInterrupt.c ****     /* Set the priority. */
  91:.\Generated_Source\PSoC4/timerInterrupt.c ****     timerInterrupt_SetPriority((uint8)timerInterrupt_INTC_PRIOR_NUMBER);
  86              		.loc 1 91 0
  87 0014 0320     		mov	r0, #3
  88 0016 FFF7FEFF 		bl	timerInterrupt_SetPriority
  92:.\Generated_Source\PSoC4/timerInterrupt.c **** 
  93:.\Generated_Source\PSoC4/timerInterrupt.c ****     /* Enable it. */
  94:.\Generated_Source\PSoC4/timerInterrupt.c ****     timerInterrupt_Enable();
  89              		.loc 1 94 0
  90 001a FFF7FEFF 		bl	timerInterrupt_Enable
  95:.\Generated_Source\PSoC4/timerInterrupt.c **** }
  91              		.loc 1 95 0
  92 001e BD46     		mov	sp, r7
  93 0020 02B0     		add	sp, sp, #8
  94              		@ sp needed for prologue
  95 0022 80BD     		pop	{r7, pc}
  96              		.cfi_endproc
  97              	.LFE1:
  98              		.size	timerInterrupt_StartEx, .-timerInterrupt_StartEx
  99              		.section	.text.timerInterrupt_Stop,"ax",%progbits
 100              		.align	2
 101              		.global	timerInterrupt_Stop
 102              		.code	16
 103              		.thumb_func
 104              		.type	timerInterrupt_Stop, %function
 105              	timerInterrupt_Stop:
 106              	.LFB2:
  96:.\Generated_Source\PSoC4/timerInterrupt.c **** 
  97:.\Generated_Source\PSoC4/timerInterrupt.c **** 
  98:.\Generated_Source\PSoC4/timerInterrupt.c **** /*******************************************************************************
  99:.\Generated_Source\PSoC4/timerInterrupt.c **** * Function Name: timerInterrupt_Stop
 100:.\Generated_Source\PSoC4/timerInterrupt.c **** ********************************************************************************
 101:.\Generated_Source\PSoC4/timerInterrupt.c **** *
 102:.\Generated_Source\PSoC4/timerInterrupt.c **** * Summary:
 103:.\Generated_Source\PSoC4/timerInterrupt.c **** *   Disables and removes the interrupt.
 104:.\Generated_Source\PSoC4/timerInterrupt.c **** *
 105:.\Generated_Source\PSoC4/timerInterrupt.c **** * Parameters:  
 106:.\Generated_Source\PSoC4/timerInterrupt.c **** *
 107:.\Generated_Source\PSoC4/timerInterrupt.c **** * Return:
 108:.\Generated_Source\PSoC4/timerInterrupt.c **** *   None
 109:.\Generated_Source\PSoC4/timerInterrupt.c **** *
 110:.\Generated_Source\PSoC4/timerInterrupt.c **** *******************************************************************************/
 111:.\Generated_Source\PSoC4/timerInterrupt.c **** void timerInterrupt_Stop(void)
 112:.\Generated_Source\PSoC4/timerInterrupt.c **** {
 107              		.loc 1 112 0
 108              		.cfi_startproc
 109 0000 80B5     		push	{r7, lr}
 110              	.LCFI5:
 111              		.cfi_def_cfa_offset 8
 112              		.cfi_offset 7, -8
 113              		.cfi_offset 14, -4
 114 0002 00AF     		add	r7, sp, #0
 115              	.LCFI6:
 116              		.cfi_def_cfa_register 7
ARM GAS  C:\Users\Sam\AppData\Local\Temp\cc22XOat.s 			page 5


 113:.\Generated_Source\PSoC4/timerInterrupt.c ****     /* Disable this interrupt. */
 114:.\Generated_Source\PSoC4/timerInterrupt.c ****     timerInterrupt_Disable();
 117              		.loc 1 114 0
 118 0004 FFF7FEFF 		bl	timerInterrupt_Disable
 115:.\Generated_Source\PSoC4/timerInterrupt.c **** 
 116:.\Generated_Source\PSoC4/timerInterrupt.c ****     /* Set the ISR to point to the passive one. */
 117:.\Generated_Source\PSoC4/timerInterrupt.c ****     timerInterrupt_SetVector(&IntDefaultHandler);
 119              		.loc 1 117 0
 120 0008 024B     		ldr	r3, .L6
 121 000a 181C     		mov	r0, r3
 122 000c FFF7FEFF 		bl	timerInterrupt_SetVector
 118:.\Generated_Source\PSoC4/timerInterrupt.c **** }
 123              		.loc 1 118 0
 124 0010 BD46     		mov	sp, r7
 125              		@ sp needed for prologue
 126 0012 80BD     		pop	{r7, pc}
 127              	.L7:
 128              		.align	2
 129              	.L6:
 130 0014 00000000 		.word	IntDefaultHandler
 131              		.cfi_endproc
 132              	.LFE2:
 133              		.size	timerInterrupt_Stop, .-timerInterrupt_Stop
 134              		.section	.text.timerInterrupt_Interrupt,"ax",%progbits
 135              		.align	2
 136              		.global	timerInterrupt_Interrupt
 137              		.code	16
 138              		.thumb_func
 139              		.type	timerInterrupt_Interrupt, %function
 140              	timerInterrupt_Interrupt:
 141              	.LFB3:
 119:.\Generated_Source\PSoC4/timerInterrupt.c **** 
 120:.\Generated_Source\PSoC4/timerInterrupt.c **** 
 121:.\Generated_Source\PSoC4/timerInterrupt.c **** /*******************************************************************************
 122:.\Generated_Source\PSoC4/timerInterrupt.c **** * Function Name: timerInterrupt_Interrupt
 123:.\Generated_Source\PSoC4/timerInterrupt.c **** ********************************************************************************
 124:.\Generated_Source\PSoC4/timerInterrupt.c **** *
 125:.\Generated_Source\PSoC4/timerInterrupt.c **** * Summary:
 126:.\Generated_Source\PSoC4/timerInterrupt.c **** *   The default Interrupt Service Routine for timerInterrupt.
 127:.\Generated_Source\PSoC4/timerInterrupt.c **** *
 128:.\Generated_Source\PSoC4/timerInterrupt.c **** *   Add custom code between the coments to keep the next version of this file
 129:.\Generated_Source\PSoC4/timerInterrupt.c **** *   from over writting your code.
 130:.\Generated_Source\PSoC4/timerInterrupt.c **** *
 131:.\Generated_Source\PSoC4/timerInterrupt.c **** * Parameters:  
 132:.\Generated_Source\PSoC4/timerInterrupt.c **** *   None
 133:.\Generated_Source\PSoC4/timerInterrupt.c **** *
 134:.\Generated_Source\PSoC4/timerInterrupt.c **** * Return:
 135:.\Generated_Source\PSoC4/timerInterrupt.c **** *   None
 136:.\Generated_Source\PSoC4/timerInterrupt.c **** *
 137:.\Generated_Source\PSoC4/timerInterrupt.c **** *******************************************************************************/
 138:.\Generated_Source\PSoC4/timerInterrupt.c **** CY_ISR(timerInterrupt_Interrupt)
 139:.\Generated_Source\PSoC4/timerInterrupt.c **** {
 142              		.loc 1 139 0
 143              		.cfi_startproc
 144 0000 80B5     		push	{r7, lr}
 145              	.LCFI7:
 146              		.cfi_def_cfa_offset 8
ARM GAS  C:\Users\Sam\AppData\Local\Temp\cc22XOat.s 			page 6


 147              		.cfi_offset 7, -8
 148              		.cfi_offset 14, -4
 149 0002 00AF     		add	r7, sp, #0
 150              	.LCFI8:
 151              		.cfi_def_cfa_register 7
 140:.\Generated_Source\PSoC4/timerInterrupt.c ****     /*  Place your Interrupt code here. */
 141:.\Generated_Source\PSoC4/timerInterrupt.c ****     /* `#START timerInterrupt_Interrupt` */
 142:.\Generated_Source\PSoC4/timerInterrupt.c ****     interruptFlag = 1; /* Set the flag */
 152              		.loc 1 142 0
 153 0004 024B     		ldr	r3, .L9
 154 0006 0122     		mov	r2, #1
 155 0008 1A70     		strb	r2, [r3]
 143:.\Generated_Source\PSoC4/timerInterrupt.c ****     /* `#END` */
 144:.\Generated_Source\PSoC4/timerInterrupt.c **** }
 156              		.loc 1 144 0
 157 000a BD46     		mov	sp, r7
 158              		@ sp needed for prologue
 159 000c 80BD     		pop	{r7, pc}
 160              	.L10:
 161 000e C046     		.align	2
 162              	.L9:
 163 0010 00000000 		.word	interruptFlag
 164              		.cfi_endproc
 165              	.LFE3:
 166              		.size	timerInterrupt_Interrupt, .-timerInterrupt_Interrupt
 167              		.section	.text.timerInterrupt_SetVector,"ax",%progbits
 168              		.align	2
 169              		.global	timerInterrupt_SetVector
 170              		.code	16
 171              		.thumb_func
 172              		.type	timerInterrupt_SetVector, %function
 173              	timerInterrupt_SetVector:
 174              	.LFB4:
 145:.\Generated_Source\PSoC4/timerInterrupt.c **** 
 146:.\Generated_Source\PSoC4/timerInterrupt.c **** 
 147:.\Generated_Source\PSoC4/timerInterrupt.c **** /*******************************************************************************
 148:.\Generated_Source\PSoC4/timerInterrupt.c **** * Function Name: timerInterrupt_SetVector
 149:.\Generated_Source\PSoC4/timerInterrupt.c **** ********************************************************************************
 150:.\Generated_Source\PSoC4/timerInterrupt.c **** *
 151:.\Generated_Source\PSoC4/timerInterrupt.c **** * Summary:
 152:.\Generated_Source\PSoC4/timerInterrupt.c **** *   Change the ISR vector for the Interrupt. Note calling timerInterrupt_Start
 153:.\Generated_Source\PSoC4/timerInterrupt.c **** *   will override any effect this method would have had. To set the vector 
 154:.\Generated_Source\PSoC4/timerInterrupt.c **** *   before the component has been started use timerInterrupt_StartEx instead.
 155:.\Generated_Source\PSoC4/timerInterrupt.c **** *
 156:.\Generated_Source\PSoC4/timerInterrupt.c **** * Parameters:
 157:.\Generated_Source\PSoC4/timerInterrupt.c **** *   address: Address of the ISR to set in the interrupt vector table.
 158:.\Generated_Source\PSoC4/timerInterrupt.c **** *
 159:.\Generated_Source\PSoC4/timerInterrupt.c **** * Return:
 160:.\Generated_Source\PSoC4/timerInterrupt.c **** *   None
 161:.\Generated_Source\PSoC4/timerInterrupt.c **** *
 162:.\Generated_Source\PSoC4/timerInterrupt.c **** *******************************************************************************/
 163:.\Generated_Source\PSoC4/timerInterrupt.c **** void timerInterrupt_SetVector(cyisraddress address)
 164:.\Generated_Source\PSoC4/timerInterrupt.c **** {
 175              		.loc 1 164 0
 176              		.cfi_startproc
 177 0000 80B5     		push	{r7, lr}
 178              	.LCFI9:
ARM GAS  C:\Users\Sam\AppData\Local\Temp\cc22XOat.s 			page 7


 179              		.cfi_def_cfa_offset 8
 180              		.cfi_offset 7, -8
 181              		.cfi_offset 14, -4
 182 0002 82B0     		sub	sp, sp, #8
 183              	.LCFI10:
 184              		.cfi_def_cfa_offset 16
 185 0004 00AF     		add	r7, sp, #0
 186              	.LCFI11:
 187              		.cfi_def_cfa_register 7
 188 0006 7860     		str	r0, [r7, #4]
 165:.\Generated_Source\PSoC4/timerInterrupt.c ****     CyRamVectors[CYINT_IRQ_BASE + timerInterrupt__INTC_NUMBER] = address;
 189              		.loc 1 165 0
 190 0008 034A     		ldr	r2, .L12
 191 000a 8023     		mov	r3, #128
 192 000c 7968     		ldr	r1, [r7, #4]
 193 000e D150     		str	r1, [r2, r3]
 166:.\Generated_Source\PSoC4/timerInterrupt.c **** }
 194              		.loc 1 166 0
 195 0010 BD46     		mov	sp, r7
 196 0012 02B0     		add	sp, sp, #8
 197              		@ sp needed for prologue
 198 0014 80BD     		pop	{r7, pc}
 199              	.L13:
 200 0016 C046     		.align	2
 201              	.L12:
 202 0018 00000000 		.word	CyRamVectors
 203              		.cfi_endproc
 204              	.LFE4:
 205              		.size	timerInterrupt_SetVector, .-timerInterrupt_SetVector
 206              		.section	.text.timerInterrupt_GetVector,"ax",%progbits
 207              		.align	2
 208              		.global	timerInterrupt_GetVector
 209              		.code	16
 210              		.thumb_func
 211              		.type	timerInterrupt_GetVector, %function
 212              	timerInterrupt_GetVector:
 213              	.LFB5:
 167:.\Generated_Source\PSoC4/timerInterrupt.c **** 
 168:.\Generated_Source\PSoC4/timerInterrupt.c **** 
 169:.\Generated_Source\PSoC4/timerInterrupt.c **** /*******************************************************************************
 170:.\Generated_Source\PSoC4/timerInterrupt.c **** * Function Name: timerInterrupt_GetVector
 171:.\Generated_Source\PSoC4/timerInterrupt.c **** ********************************************************************************
 172:.\Generated_Source\PSoC4/timerInterrupt.c **** *
 173:.\Generated_Source\PSoC4/timerInterrupt.c **** * Summary:
 174:.\Generated_Source\PSoC4/timerInterrupt.c **** *   Gets the "address" of the current ISR vector for the Interrupt.
 175:.\Generated_Source\PSoC4/timerInterrupt.c **** *
 176:.\Generated_Source\PSoC4/timerInterrupt.c **** * Parameters:
 177:.\Generated_Source\PSoC4/timerInterrupt.c **** *   None
 178:.\Generated_Source\PSoC4/timerInterrupt.c **** *
 179:.\Generated_Source\PSoC4/timerInterrupt.c **** * Return:
 180:.\Generated_Source\PSoC4/timerInterrupt.c **** *   Address of the ISR in the interrupt vector table.
 181:.\Generated_Source\PSoC4/timerInterrupt.c **** *
 182:.\Generated_Source\PSoC4/timerInterrupt.c **** *******************************************************************************/
 183:.\Generated_Source\PSoC4/timerInterrupt.c **** cyisraddress timerInterrupt_GetVector(void)
 184:.\Generated_Source\PSoC4/timerInterrupt.c **** {
 214              		.loc 1 184 0
 215              		.cfi_startproc
ARM GAS  C:\Users\Sam\AppData\Local\Temp\cc22XOat.s 			page 8


 216 0000 80B5     		push	{r7, lr}
 217              	.LCFI12:
 218              		.cfi_def_cfa_offset 8
 219              		.cfi_offset 7, -8
 220              		.cfi_offset 14, -4
 221 0002 00AF     		add	r7, sp, #0
 222              	.LCFI13:
 223              		.cfi_def_cfa_register 7
 185:.\Generated_Source\PSoC4/timerInterrupt.c ****     return CyRamVectors[CYINT_IRQ_BASE + timerInterrupt__INTC_NUMBER];
 224              		.loc 1 185 0
 225 0004 024A     		ldr	r2, .L16
 226 0006 8023     		mov	r3, #128
 227 0008 D358     		ldr	r3, [r2, r3]
 186:.\Generated_Source\PSoC4/timerInterrupt.c **** }
 228              		.loc 1 186 0
 229 000a 181C     		mov	r0, r3
 230 000c BD46     		mov	sp, r7
 231              		@ sp needed for prologue
 232 000e 80BD     		pop	{r7, pc}
 233              	.L17:
 234              		.align	2
 235              	.L16:
 236 0010 00000000 		.word	CyRamVectors
 237              		.cfi_endproc
 238              	.LFE5:
 239              		.size	timerInterrupt_GetVector, .-timerInterrupt_GetVector
 240              		.section	.text.timerInterrupt_SetPriority,"ax",%progbits
 241              		.align	2
 242              		.global	timerInterrupt_SetPriority
 243              		.code	16
 244              		.thumb_func
 245              		.type	timerInterrupt_SetPriority, %function
 246              	timerInterrupt_SetPriority:
 247              	.LFB6:
 187:.\Generated_Source\PSoC4/timerInterrupt.c **** 
 188:.\Generated_Source\PSoC4/timerInterrupt.c **** 
 189:.\Generated_Source\PSoC4/timerInterrupt.c **** /*******************************************************************************
 190:.\Generated_Source\PSoC4/timerInterrupt.c **** * Function Name: timerInterrupt_SetPriority
 191:.\Generated_Source\PSoC4/timerInterrupt.c **** ********************************************************************************
 192:.\Generated_Source\PSoC4/timerInterrupt.c **** *
 193:.\Generated_Source\PSoC4/timerInterrupt.c **** * Summary:
 194:.\Generated_Source\PSoC4/timerInterrupt.c **** *   Sets the Priority of the Interrupt. Note calling timerInterrupt_Start
 195:.\Generated_Source\PSoC4/timerInterrupt.c **** *   or timerInterrupt_StartEx will override any effect this method would 
 196:.\Generated_Source\PSoC4/timerInterrupt.c **** *   have had. This method should only be called after timerInterrupt_Start or 
 197:.\Generated_Source\PSoC4/timerInterrupt.c **** *   timerInterrupt_StartEx has been called. To set the initial
 198:.\Generated_Source\PSoC4/timerInterrupt.c **** *   priority for the component use the cydwr file in the tool.
 199:.\Generated_Source\PSoC4/timerInterrupt.c **** *
 200:.\Generated_Source\PSoC4/timerInterrupt.c **** * Parameters:
 201:.\Generated_Source\PSoC4/timerInterrupt.c **** *   priority: Priority of the interrupt. 0 - 3, 0 being the highest.
 202:.\Generated_Source\PSoC4/timerInterrupt.c **** *
 203:.\Generated_Source\PSoC4/timerInterrupt.c **** * Return:
 204:.\Generated_Source\PSoC4/timerInterrupt.c **** *   None
 205:.\Generated_Source\PSoC4/timerInterrupt.c **** *
 206:.\Generated_Source\PSoC4/timerInterrupt.c **** *******************************************************************************/
 207:.\Generated_Source\PSoC4/timerInterrupt.c **** void timerInterrupt_SetPriority(uint8 priority)
 208:.\Generated_Source\PSoC4/timerInterrupt.c **** {
 248              		.loc 1 208 0
ARM GAS  C:\Users\Sam\AppData\Local\Temp\cc22XOat.s 			page 9


 249              		.cfi_startproc
 250 0000 90B5     		push	{r4, r7, lr}
 251              	.LCFI14:
 252              		.cfi_def_cfa_offset 12
 253              		.cfi_offset 4, -12
 254              		.cfi_offset 7, -8
 255              		.cfi_offset 14, -4
 256 0002 85B0     		sub	sp, sp, #20
 257              	.LCFI15:
 258              		.cfi_def_cfa_offset 32
 259 0004 00AF     		add	r7, sp, #0
 260              	.LCFI16:
 261              		.cfi_def_cfa_register 7
 262 0006 021C     		mov	r2, r0
 263 0008 FB1D     		add	r3, r7, #7
 264 000a 1A70     		strb	r2, [r3]
 209:.\Generated_Source\PSoC4/timerInterrupt.c **** 	uint8 interruptState;
 210:.\Generated_Source\PSoC4/timerInterrupt.c ****     uint32 priorityOffset = ((timerInterrupt__INTC_NUMBER % 4u) * 8u) + 6u;
 265              		.loc 1 210 0
 266 000c 0623     		mov	r3, #6
 267 000e FB60     		str	r3, [r7, #12]
 211:.\Generated_Source\PSoC4/timerInterrupt.c ****     
 212:.\Generated_Source\PSoC4/timerInterrupt.c **** 	interruptState = CyEnterCriticalSection();
 268              		.loc 1 212 0
 269 0010 3C1C     		mov	r4, r7
 270 0012 0B34     		add	r4, r4, #11
 271 0014 FFF7FEFF 		bl	CyEnterCriticalSection
 272 0018 031C     		mov	r3, r0
 273 001a 2370     		strb	r3, [r4]
 213:.\Generated_Source\PSoC4/timerInterrupt.c ****     *timerInterrupt_INTC_PRIOR = (*timerInterrupt_INTC_PRIOR & (uint32)(~timerInterrupt__INTC_PRIOR
 274              		.loc 1 213 0
 275 001c 0B4B     		ldr	r3, .L19
 276 001e 0B4A     		ldr	r2, .L19
 277 0020 1268     		ldr	r2, [r2]
 278 0022 C021     		mov	r1, #192
 279 0024 101C     		mov	r0, r2
 280 0026 8843     		bic	r0, r1
 281 0028 011C     		mov	r1, r0
 214:.\Generated_Source\PSoC4/timerInterrupt.c ****                                     ((uint32)priority << priorityOffset);
 282              		.loc 1 214 0
 283 002a FA1D     		add	r2, r7, #7
 284 002c 1078     		ldrb	r0, [r2]
 285 002e FA68     		ldr	r2, [r7, #12]
 286 0030 041C     		mov	r4, r0
 287 0032 9440     		lsl	r4, r4, r2
 288 0034 221C     		mov	r2, r4
 213:.\Generated_Source\PSoC4/timerInterrupt.c ****     *timerInterrupt_INTC_PRIOR = (*timerInterrupt_INTC_PRIOR & (uint32)(~timerInterrupt__INTC_PRIOR
 289              		.loc 1 213 0
 290 0036 0A43     		orr	r2, r1
 291 0038 1A60     		str	r2, [r3]
 215:.\Generated_Source\PSoC4/timerInterrupt.c **** 	CyExitCriticalSection(interruptState);
 292              		.loc 1 215 0
 293 003a 3B1C     		mov	r3, r7
 294 003c 0B33     		add	r3, r3, #11
 295 003e 1B78     		ldrb	r3, [r3]
 296 0040 181C     		mov	r0, r3
 297 0042 FFF7FEFF 		bl	CyExitCriticalSection
ARM GAS  C:\Users\Sam\AppData\Local\Temp\cc22XOat.s 			page 10


 216:.\Generated_Source\PSoC4/timerInterrupt.c **** }
 298              		.loc 1 216 0
 299 0046 BD46     		mov	sp, r7
 300 0048 05B0     		add	sp, sp, #20
 301              		@ sp needed for prologue
 302 004a 90BD     		pop	{r4, r7, pc}
 303              	.L20:
 304              		.align	2
 305              	.L19:
 306 004c 10E400E0 		.word	-536812528
 307              		.cfi_endproc
 308              	.LFE6:
 309              		.size	timerInterrupt_SetPriority, .-timerInterrupt_SetPriority
 310              		.section	.text.timerInterrupt_GetPriority,"ax",%progbits
 311              		.align	2
 312              		.global	timerInterrupt_GetPriority
 313              		.code	16
 314              		.thumb_func
 315              		.type	timerInterrupt_GetPriority, %function
 316              	timerInterrupt_GetPriority:
 317              	.LFB7:
 217:.\Generated_Source\PSoC4/timerInterrupt.c **** 
 218:.\Generated_Source\PSoC4/timerInterrupt.c **** 
 219:.\Generated_Source\PSoC4/timerInterrupt.c **** /*******************************************************************************
 220:.\Generated_Source\PSoC4/timerInterrupt.c **** * Function Name: timerInterrupt_GetPriority
 221:.\Generated_Source\PSoC4/timerInterrupt.c **** ********************************************************************************
 222:.\Generated_Source\PSoC4/timerInterrupt.c **** *
 223:.\Generated_Source\PSoC4/timerInterrupt.c **** * Summary:
 224:.\Generated_Source\PSoC4/timerInterrupt.c **** *   Gets the Priority of the Interrupt.
 225:.\Generated_Source\PSoC4/timerInterrupt.c **** *
 226:.\Generated_Source\PSoC4/timerInterrupt.c **** * Parameters:
 227:.\Generated_Source\PSoC4/timerInterrupt.c **** *   None
 228:.\Generated_Source\PSoC4/timerInterrupt.c **** *
 229:.\Generated_Source\PSoC4/timerInterrupt.c **** * Return:
 230:.\Generated_Source\PSoC4/timerInterrupt.c **** *   Priority of the interrupt. 0 - 3, 0 being the highest.
 231:.\Generated_Source\PSoC4/timerInterrupt.c **** *
 232:.\Generated_Source\PSoC4/timerInterrupt.c **** *******************************************************************************/
 233:.\Generated_Source\PSoC4/timerInterrupt.c **** uint8 timerInterrupt_GetPriority(void)
 234:.\Generated_Source\PSoC4/timerInterrupt.c **** {
 318              		.loc 1 234 0
 319              		.cfi_startproc
 320 0000 80B5     		push	{r7, lr}
 321              	.LCFI17:
 322              		.cfi_def_cfa_offset 8
 323              		.cfi_offset 7, -8
 324              		.cfi_offset 14, -4
 325 0002 82B0     		sub	sp, sp, #8
 326              	.LCFI18:
 327              		.cfi_def_cfa_offset 16
 328 0004 00AF     		add	r7, sp, #0
 329              	.LCFI19:
 330              		.cfi_def_cfa_register 7
 235:.\Generated_Source\PSoC4/timerInterrupt.c ****     uint32 priority;
 236:.\Generated_Source\PSoC4/timerInterrupt.c **** 	uint32 priorityOffset = ((timerInterrupt__INTC_NUMBER % 4u) * 8u) + 6u;
 331              		.loc 1 236 0
 332 0006 0623     		mov	r3, #6
 333 0008 7B60     		str	r3, [r7, #4]
ARM GAS  C:\Users\Sam\AppData\Local\Temp\cc22XOat.s 			page 11


 237:.\Generated_Source\PSoC4/timerInterrupt.c **** 
 238:.\Generated_Source\PSoC4/timerInterrupt.c ****     priority = (*timerInterrupt_INTC_PRIOR & timerInterrupt__INTC_PRIOR_MASK) >> priorityOffset;
 334              		.loc 1 238 0
 335 000a 074B     		ldr	r3, .L23
 336 000c 1A68     		ldr	r2, [r3]
 337 000e C023     		mov	r3, #192
 338 0010 1A40     		and	r2, r3
 339 0012 7B68     		ldr	r3, [r7, #4]
 340 0014 111C     		mov	r1, r2
 341 0016 D940     		lsr	r1, r1, r3
 342 0018 0B1C     		mov	r3, r1
 343 001a 3B60     		str	r3, [r7]
 239:.\Generated_Source\PSoC4/timerInterrupt.c **** 
 240:.\Generated_Source\PSoC4/timerInterrupt.c ****     return (uint8)priority;
 344              		.loc 1 240 0
 345 001c 3B68     		ldr	r3, [r7]
 346 001e DBB2     		uxtb	r3, r3
 241:.\Generated_Source\PSoC4/timerInterrupt.c **** }
 347              		.loc 1 241 0
 348 0020 181C     		mov	r0, r3
 349 0022 BD46     		mov	sp, r7
 350 0024 02B0     		add	sp, sp, #8
 351              		@ sp needed for prologue
 352 0026 80BD     		pop	{r7, pc}
 353              	.L24:
 354              		.align	2
 355              	.L23:
 356 0028 10E400E0 		.word	-536812528
 357              		.cfi_endproc
 358              	.LFE7:
 359              		.size	timerInterrupt_GetPriority, .-timerInterrupt_GetPriority
 360              		.section	.text.timerInterrupt_Enable,"ax",%progbits
 361              		.align	2
 362              		.global	timerInterrupt_Enable
 363              		.code	16
 364              		.thumb_func
 365              		.type	timerInterrupt_Enable, %function
 366              	timerInterrupt_Enable:
 367              	.LFB8:
 242:.\Generated_Source\PSoC4/timerInterrupt.c **** 
 243:.\Generated_Source\PSoC4/timerInterrupt.c **** 
 244:.\Generated_Source\PSoC4/timerInterrupt.c **** /*******************************************************************************
 245:.\Generated_Source\PSoC4/timerInterrupt.c **** * Function Name: timerInterrupt_Enable
 246:.\Generated_Source\PSoC4/timerInterrupt.c **** ********************************************************************************
 247:.\Generated_Source\PSoC4/timerInterrupt.c **** *
 248:.\Generated_Source\PSoC4/timerInterrupt.c **** * Summary:
 249:.\Generated_Source\PSoC4/timerInterrupt.c **** *   Enables the interrupt.
 250:.\Generated_Source\PSoC4/timerInterrupt.c **** *
 251:.\Generated_Source\PSoC4/timerInterrupt.c **** * Parameters:
 252:.\Generated_Source\PSoC4/timerInterrupt.c **** *   None
 253:.\Generated_Source\PSoC4/timerInterrupt.c **** *
 254:.\Generated_Source\PSoC4/timerInterrupt.c **** * Return:
 255:.\Generated_Source\PSoC4/timerInterrupt.c **** *   None
 256:.\Generated_Source\PSoC4/timerInterrupt.c **** *
 257:.\Generated_Source\PSoC4/timerInterrupt.c **** *******************************************************************************/
 258:.\Generated_Source\PSoC4/timerInterrupt.c **** void timerInterrupt_Enable(void)
 259:.\Generated_Source\PSoC4/timerInterrupt.c **** {
ARM GAS  C:\Users\Sam\AppData\Local\Temp\cc22XOat.s 			page 12


 368              		.loc 1 259 0
 369              		.cfi_startproc
 370 0000 80B5     		push	{r7, lr}
 371              	.LCFI20:
 372              		.cfi_def_cfa_offset 8
 373              		.cfi_offset 7, -8
 374              		.cfi_offset 14, -4
 375 0002 00AF     		add	r7, sp, #0
 376              	.LCFI21:
 377              		.cfi_def_cfa_register 7
 260:.\Generated_Source\PSoC4/timerInterrupt.c ****     /* Enable the general interrupt. */
 261:.\Generated_Source\PSoC4/timerInterrupt.c ****     *timerInterrupt_INTC_SET_EN = timerInterrupt__INTC_MASK;
 378              		.loc 1 261 0
 379 0004 024B     		ldr	r3, .L26
 380 0006 8022     		mov	r2, #128
 381 0008 5202     		lsl	r2, r2, #9
 382 000a 1A60     		str	r2, [r3]
 262:.\Generated_Source\PSoC4/timerInterrupt.c **** }
 383              		.loc 1 262 0
 384 000c BD46     		mov	sp, r7
 385              		@ sp needed for prologue
 386 000e 80BD     		pop	{r7, pc}
 387              	.L27:
 388              		.align	2
 389              	.L26:
 390 0010 00E100E0 		.word	-536813312
 391              		.cfi_endproc
 392              	.LFE8:
 393              		.size	timerInterrupt_Enable, .-timerInterrupt_Enable
 394              		.section	.text.timerInterrupt_GetState,"ax",%progbits
 395              		.align	2
 396              		.global	timerInterrupt_GetState
 397              		.code	16
 398              		.thumb_func
 399              		.type	timerInterrupt_GetState, %function
 400              	timerInterrupt_GetState:
 401              	.LFB9:
 263:.\Generated_Source\PSoC4/timerInterrupt.c **** 
 264:.\Generated_Source\PSoC4/timerInterrupt.c **** 
 265:.\Generated_Source\PSoC4/timerInterrupt.c **** /*******************************************************************************
 266:.\Generated_Source\PSoC4/timerInterrupt.c **** * Function Name: timerInterrupt_GetState
 267:.\Generated_Source\PSoC4/timerInterrupt.c **** ********************************************************************************
 268:.\Generated_Source\PSoC4/timerInterrupt.c **** *
 269:.\Generated_Source\PSoC4/timerInterrupt.c **** * Summary:
 270:.\Generated_Source\PSoC4/timerInterrupt.c **** *   Gets the state (enabled, disabled) of the Interrupt.
 271:.\Generated_Source\PSoC4/timerInterrupt.c **** *
 272:.\Generated_Source\PSoC4/timerInterrupt.c **** * Parameters:
 273:.\Generated_Source\PSoC4/timerInterrupt.c **** *   None
 274:.\Generated_Source\PSoC4/timerInterrupt.c **** *
 275:.\Generated_Source\PSoC4/timerInterrupt.c **** * Return:
 276:.\Generated_Source\PSoC4/timerInterrupt.c **** *   1 if enabled, 0 if disabled.
 277:.\Generated_Source\PSoC4/timerInterrupt.c **** *
 278:.\Generated_Source\PSoC4/timerInterrupt.c **** *******************************************************************************/
 279:.\Generated_Source\PSoC4/timerInterrupt.c **** uint8 timerInterrupt_GetState(void)
 280:.\Generated_Source\PSoC4/timerInterrupt.c **** {
 402              		.loc 1 280 0
 403              		.cfi_startproc
ARM GAS  C:\Users\Sam\AppData\Local\Temp\cc22XOat.s 			page 13


 404 0000 80B5     		push	{r7, lr}
 405              	.LCFI22:
 406              		.cfi_def_cfa_offset 8
 407              		.cfi_offset 7, -8
 408              		.cfi_offset 14, -4
 409 0002 00AF     		add	r7, sp, #0
 410              	.LCFI23:
 411              		.cfi_def_cfa_register 7
 281:.\Generated_Source\PSoC4/timerInterrupt.c ****     /* Get the state of the general interrupt. */
 282:.\Generated_Source\PSoC4/timerInterrupt.c ****     return ((*timerInterrupt_INTC_SET_EN & (uint32)timerInterrupt__INTC_MASK) != 0u) ? 1u:0u;
 412              		.loc 1 282 0
 413 0004 054B     		ldr	r3, .L32
 414 0006 1A68     		ldr	r2, [r3]
 415 0008 8023     		mov	r3, #128
 416 000a 5B02     		lsl	r3, r3, #9
 417 000c 1340     		and	r3, r2
 418 000e 01D0     		beq	.L29
 419              		.loc 1 282 0 is_stmt 0 discriminator 1
 420 0010 0123     		mov	r3, #1
 421 0012 00E0     		b	.L30
 422              	.L29:
 423              		.loc 1 282 0 discriminator 2
 424 0014 0023     		mov	r3, #0
 425              	.L30:
 283:.\Generated_Source\PSoC4/timerInterrupt.c **** }
 426              		.loc 1 283 0 is_stmt 1 discriminator 3
 427 0016 181C     		mov	r0, r3
 428 0018 BD46     		mov	sp, r7
 429              		@ sp needed for prologue
 430 001a 80BD     		pop	{r7, pc}
 431              	.L33:
 432              		.align	2
 433              	.L32:
 434 001c 00E100E0 		.word	-536813312
 435              		.cfi_endproc
 436              	.LFE9:
 437              		.size	timerInterrupt_GetState, .-timerInterrupt_GetState
 438              		.section	.text.timerInterrupt_Disable,"ax",%progbits
 439              		.align	2
 440              		.global	timerInterrupt_Disable
 441              		.code	16
 442              		.thumb_func
 443              		.type	timerInterrupt_Disable, %function
 444              	timerInterrupt_Disable:
 445              	.LFB10:
 284:.\Generated_Source\PSoC4/timerInterrupt.c **** 
 285:.\Generated_Source\PSoC4/timerInterrupt.c **** 
 286:.\Generated_Source\PSoC4/timerInterrupt.c **** /*******************************************************************************
 287:.\Generated_Source\PSoC4/timerInterrupt.c **** * Function Name: timerInterrupt_Disable
 288:.\Generated_Source\PSoC4/timerInterrupt.c **** ********************************************************************************
 289:.\Generated_Source\PSoC4/timerInterrupt.c **** *
 290:.\Generated_Source\PSoC4/timerInterrupt.c **** * Summary:
 291:.\Generated_Source\PSoC4/timerInterrupt.c **** *   Disables the Interrupt.
 292:.\Generated_Source\PSoC4/timerInterrupt.c **** *
 293:.\Generated_Source\PSoC4/timerInterrupt.c **** * Parameters:
 294:.\Generated_Source\PSoC4/timerInterrupt.c **** *   None
 295:.\Generated_Source\PSoC4/timerInterrupt.c **** *
ARM GAS  C:\Users\Sam\AppData\Local\Temp\cc22XOat.s 			page 14


 296:.\Generated_Source\PSoC4/timerInterrupt.c **** * Return:
 297:.\Generated_Source\PSoC4/timerInterrupt.c **** *   None
 298:.\Generated_Source\PSoC4/timerInterrupt.c **** *
 299:.\Generated_Source\PSoC4/timerInterrupt.c **** *******************************************************************************/
 300:.\Generated_Source\PSoC4/timerInterrupt.c **** void timerInterrupt_Disable(void)
 301:.\Generated_Source\PSoC4/timerInterrupt.c **** {
 446              		.loc 1 301 0
 447              		.cfi_startproc
 448 0000 80B5     		push	{r7, lr}
 449              	.LCFI24:
 450              		.cfi_def_cfa_offset 8
 451              		.cfi_offset 7, -8
 452              		.cfi_offset 14, -4
 453 0002 00AF     		add	r7, sp, #0
 454              	.LCFI25:
 455              		.cfi_def_cfa_register 7
 302:.\Generated_Source\PSoC4/timerInterrupt.c ****     /* Disable the general interrupt. */
 303:.\Generated_Source\PSoC4/timerInterrupt.c ****     *timerInterrupt_INTC_CLR_EN = timerInterrupt__INTC_MASK;
 456              		.loc 1 303 0
 457 0004 024B     		ldr	r3, .L35
 458 0006 8022     		mov	r2, #128
 459 0008 5202     		lsl	r2, r2, #9
 460 000a 1A60     		str	r2, [r3]
 304:.\Generated_Source\PSoC4/timerInterrupt.c **** }
 461              		.loc 1 304 0
 462 000c BD46     		mov	sp, r7
 463              		@ sp needed for prologue
 464 000e 80BD     		pop	{r7, pc}
 465              	.L36:
 466              		.align	2
 467              	.L35:
 468 0010 80E100E0 		.word	-536813184
 469              		.cfi_endproc
 470              	.LFE10:
 471              		.size	timerInterrupt_Disable, .-timerInterrupt_Disable
 472              		.section	.text.timerInterrupt_SetPending,"ax",%progbits
 473              		.align	2
 474              		.global	timerInterrupt_SetPending
 475              		.code	16
 476              		.thumb_func
 477              		.type	timerInterrupt_SetPending, %function
 478              	timerInterrupt_SetPending:
 479              	.LFB11:
 305:.\Generated_Source\PSoC4/timerInterrupt.c **** 
 306:.\Generated_Source\PSoC4/timerInterrupt.c **** 
 307:.\Generated_Source\PSoC4/timerInterrupt.c **** /*******************************************************************************
 308:.\Generated_Source\PSoC4/timerInterrupt.c **** * Function Name: timerInterrupt_SetPending
 309:.\Generated_Source\PSoC4/timerInterrupt.c **** ********************************************************************************
 310:.\Generated_Source\PSoC4/timerInterrupt.c **** *
 311:.\Generated_Source\PSoC4/timerInterrupt.c **** * Summary:
 312:.\Generated_Source\PSoC4/timerInterrupt.c **** *   Causes the Interrupt to enter the pending state, a software method of
 313:.\Generated_Source\PSoC4/timerInterrupt.c **** *   generating the interrupt.
 314:.\Generated_Source\PSoC4/timerInterrupt.c **** *
 315:.\Generated_Source\PSoC4/timerInterrupt.c **** * Parameters:
 316:.\Generated_Source\PSoC4/timerInterrupt.c **** *   None
 317:.\Generated_Source\PSoC4/timerInterrupt.c **** *
 318:.\Generated_Source\PSoC4/timerInterrupt.c **** * Return:
ARM GAS  C:\Users\Sam\AppData\Local\Temp\cc22XOat.s 			page 15


 319:.\Generated_Source\PSoC4/timerInterrupt.c **** *   None
 320:.\Generated_Source\PSoC4/timerInterrupt.c **** *
 321:.\Generated_Source\PSoC4/timerInterrupt.c **** *******************************************************************************/
 322:.\Generated_Source\PSoC4/timerInterrupt.c **** void timerInterrupt_SetPending(void)
 323:.\Generated_Source\PSoC4/timerInterrupt.c **** {
 480              		.loc 1 323 0
 481              		.cfi_startproc
 482 0000 80B5     		push	{r7, lr}
 483              	.LCFI26:
 484              		.cfi_def_cfa_offset 8
 485              		.cfi_offset 7, -8
 486              		.cfi_offset 14, -4
 487 0002 00AF     		add	r7, sp, #0
 488              	.LCFI27:
 489              		.cfi_def_cfa_register 7
 324:.\Generated_Source\PSoC4/timerInterrupt.c ****     *timerInterrupt_INTC_SET_PD = timerInterrupt__INTC_MASK;
 490              		.loc 1 324 0
 491 0004 024B     		ldr	r3, .L38
 492 0006 8022     		mov	r2, #128
 493 0008 5202     		lsl	r2, r2, #9
 494 000a 1A60     		str	r2, [r3]
 325:.\Generated_Source\PSoC4/timerInterrupt.c **** }
 495              		.loc 1 325 0
 496 000c BD46     		mov	sp, r7
 497              		@ sp needed for prologue
 498 000e 80BD     		pop	{r7, pc}
 499              	.L39:
 500              		.align	2
 501              	.L38:
 502 0010 00E200E0 		.word	-536813056
 503              		.cfi_endproc
 504              	.LFE11:
 505              		.size	timerInterrupt_SetPending, .-timerInterrupt_SetPending
 506              		.section	.text.timerInterrupt_ClearPending,"ax",%progbits
 507              		.align	2
 508              		.global	timerInterrupt_ClearPending
 509              		.code	16
 510              		.thumb_func
 511              		.type	timerInterrupt_ClearPending, %function
 512              	timerInterrupt_ClearPending:
 513              	.LFB12:
 326:.\Generated_Source\PSoC4/timerInterrupt.c **** 
 327:.\Generated_Source\PSoC4/timerInterrupt.c **** 
 328:.\Generated_Source\PSoC4/timerInterrupt.c **** /*******************************************************************************
 329:.\Generated_Source\PSoC4/timerInterrupt.c **** * Function Name: timerInterrupt_ClearPending
 330:.\Generated_Source\PSoC4/timerInterrupt.c **** ********************************************************************************
 331:.\Generated_Source\PSoC4/timerInterrupt.c **** *
 332:.\Generated_Source\PSoC4/timerInterrupt.c **** * Summary:
 333:.\Generated_Source\PSoC4/timerInterrupt.c **** *   Clears a pending interrupt.
 334:.\Generated_Source\PSoC4/timerInterrupt.c **** *
 335:.\Generated_Source\PSoC4/timerInterrupt.c **** * Parameters:
 336:.\Generated_Source\PSoC4/timerInterrupt.c **** *   None
 337:.\Generated_Source\PSoC4/timerInterrupt.c **** *
 338:.\Generated_Source\PSoC4/timerInterrupt.c **** * Return:
 339:.\Generated_Source\PSoC4/timerInterrupt.c **** *   None
 340:.\Generated_Source\PSoC4/timerInterrupt.c **** *
 341:.\Generated_Source\PSoC4/timerInterrupt.c **** *******************************************************************************/
ARM GAS  C:\Users\Sam\AppData\Local\Temp\cc22XOat.s 			page 16


 342:.\Generated_Source\PSoC4/timerInterrupt.c **** void timerInterrupt_ClearPending(void)
 343:.\Generated_Source\PSoC4/timerInterrupt.c **** {
 514              		.loc 1 343 0
 515              		.cfi_startproc
 516 0000 80B5     		push	{r7, lr}
 517              	.LCFI28:
 518              		.cfi_def_cfa_offset 8
 519              		.cfi_offset 7, -8
 520              		.cfi_offset 14, -4
 521 0002 00AF     		add	r7, sp, #0
 522              	.LCFI29:
 523              		.cfi_def_cfa_register 7
 344:.\Generated_Source\PSoC4/timerInterrupt.c ****     *timerInterrupt_INTC_CLR_PD = timerInterrupt__INTC_MASK;
 524              		.loc 1 344 0
 525 0004 024B     		ldr	r3, .L41
 526 0006 8022     		mov	r2, #128
 527 0008 5202     		lsl	r2, r2, #9
 528 000a 1A60     		str	r2, [r3]
 345:.\Generated_Source\PSoC4/timerInterrupt.c **** }
 529              		.loc 1 345 0
 530 000c BD46     		mov	sp, r7
 531              		@ sp needed for prologue
 532 000e 80BD     		pop	{r7, pc}
 533              	.L42:
 534              		.align	2
 535              	.L41:
 536 0010 80E200E0 		.word	-536812928
 537              		.cfi_endproc
 538              	.LFE12:
 539              		.size	timerInterrupt_ClearPending, .-timerInterrupt_ClearPending
 540              		.text
 541              	.Letext0:
 542              		.file 2 "./Generated_Source/PSoC4/cytypes.h"